   1               		.file	"main.c"
   2               	__SP_H__ = 0x3e
   3               	__SP_L__ = 0x3d
   4               	__SREG__ = 0x3f
   5               	__tmp_reg__ = 0
   6               	__zero_reg__ = 1
   7               		.text
   9               	serviceBattery:
  10               	/* prologue: function */
  11               	/* frame size = 0 */
  12               	/* stack size = 0 */
  13               	.L__stack_usage = 0
  14 0000 8091 7A00 		lds r24,122
  15 0004 8760      		ori r24,lo8(7)
  16 0006 8093 7A00 		sts 122,r24
  17 000a 8091 7C00 		lds r24,124
  18 000e 8093 7C00 		sts 124,r24
  19 0012 8091 7C00 		lds r24,124
  20 0016 8093 7C00 		sts 124,r24
  21 001a 8091 7C00 		lds r24,124
  22 001e 8260      		ori r24,lo8(2)
  23 0020 8093 7C00 		sts 124,r24
  24 0024 8091 7A00 		lds r24,122
  25 0028 8068      		ori r24,lo8(-128)
  26 002a 8093 7A00 		sts 122,r24
  27 002e 8091 7A00 		lds r24,122
  28 0032 8064      		ori r24,lo8(64)
  29 0034 8093 7A00 		sts 122,r24
  30               	.L2:
  31 0038 8091 7A00 		lds r24,122
  32 003c 86FD      		sbrc r24,6
  33 003e 00C0      		rjmp .L2
  34 0040 8091 7800 		lds r24,120
  35 0044 2091 7900 		lds r18,121
  36 0048 90E0      		ldi r25,0
  37 004a 922B      		or r25,r18
  38 004c 8539      		cpi r24,-107
  39 004e 21E0      		ldi r18,1
  40 0050 9207      		cpc r25,r18
  41 0052 00F4      		brsh .L3
  42 0054 84E0      		ldi r24,lo8(4)
  43 0056 00C0      		rjmp .L9
  44               	.L3:
  45 0058 8A3A      		cpi r24,-86
  46 005a 21E0      		ldi r18,1
  47 005c 9207      		cpc r25,r18
  48 005e 00F4      		brsh .L5
  49 0060 83E0      		ldi r24,lo8(3)
  50 0062 00C0      		rjmp .L9
  51               	.L5:
  52 0064 813B      		cpi r24,-79
  53 0066 21E0      		ldi r18,1
  54 0068 9207      		cpc r25,r18
  55 006a 00F4      		brsh .L6
  56 006c 82E0      		ldi r24,lo8(2)
  57 006e 00C0      		rjmp .L9
  58               	.L6:
  59 0070 8F3B      		cpi r24,-65
  60 0072 9140      		sbci r25,1
  61 0074 00F4      		brsh .L7
  62 0076 81E0      		ldi r24,lo8(1)
  63               	.L9:
  64 0078 8093 0000 		sts battery_state,r24
  65 007c 0895      		ret
  66               	.L7:
  67 007e 1092 0000 		sts battery_state,__zero_reg__
  68 0082 0895      		ret
  71               	volumeDOWNone:
  72 0084 CF93      		push r28
  73               	/* prologue: function */
  74               	/* frame size = 0 */
  75               	/* stack size = 1 */
  76               	.L__stack_usage = 1
  77 0086 4598      		cbi 0x8,5
  78 0088 0E94 0000 		call yackbeat
  79 008c 4398      		cbi 0x8,3
  80 008e 0E94 0000 		call yackbeat
  81 0092 C8E0      		ldi r28,lo8(8)
  82               	.L12:
  83 0094 459A      		sbi 0x8,5
  84 0096 0E94 0000 		call yackbeat
  85 009a 4598      		cbi 0x8,5
  86 009c 0E94 0000 		call yackbeat
  87 00a0 C150      		subi r28,lo8(-(-1))
  88 00a2 01F4      		brne .L12
  89 00a4 439A      		sbi 0x8,3
  90               	/* epilogue start */
  91 00a6 CF91      		pop r28
  92 00a8 0895      		ret
  95               	volumeUPone:
  96 00aa CF93      		push r28
  97               	/* prologue: function */
  98               	/* frame size = 0 */
  99               	/* stack size = 1 */
 100               	.L__stack_usage = 1
 101 00ac 459A      		sbi 0x8,5
 102 00ae 0E94 0000 		call yackbeat
 103 00b2 4398      		cbi 0x8,3
 104 00b4 0E94 0000 		call yackbeat
 105 00b8 C8E0      		ldi r28,lo8(8)
 106               	.L15:
 107 00ba 459A      		sbi 0x8,5
 108 00bc 0E94 0000 		call yackbeat
 109 00c0 4598      		cbi 0x8,5
 110 00c2 0E94 0000 		call yackbeat
 111 00c6 C150      		subi r28,lo8(-(-1))
 112 00c8 01F4      		brne .L15
 113 00ca 4598      		cbi 0x8,5
 114 00cc 439A      		sbi 0x8,3
 115               	/* epilogue start */
 116 00ce CF91      		pop r28
 117 00d0 0895      		ret
 120               	filterDOWNone:
 121 00d2 CF93      		push r28
 122               	/* prologue: function */
 123               	/* frame size = 0 */
 124               	/* stack size = 1 */
 125               	.L__stack_usage = 1
 126 00d4 4598      		cbi 0x8,5
 127 00d6 0E94 0000 		call yackbeat
 128 00da 4498      		cbi 0x8,4
 129 00dc 0E94 0000 		call yackbeat
 130 00e0 C8E0      		ldi r28,lo8(8)
 131               	.L18:
 132 00e2 459A      		sbi 0x8,5
 133 00e4 0E94 0000 		call yackbeat
 134 00e8 4598      		cbi 0x8,5
 135 00ea 0E94 0000 		call yackbeat
 136 00ee C150      		subi r28,lo8(-(-1))
 137 00f0 01F4      		brne .L18
 138 00f2 449A      		sbi 0x8,4
 139               	/* epilogue start */
 140 00f4 CF91      		pop r28
 141 00f6 0895      		ret
 144               	filterUPone:
 145 00f8 CF93      		push r28
 146               	/* prologue: function */
 147               	/* frame size = 0 */
 148               	/* stack size = 1 */
 149               	.L__stack_usage = 1
 150 00fa 459A      		sbi 0x8,5
 151 00fc 0E94 0000 		call yackbeat
 152 0100 4498      		cbi 0x8,4
 153 0102 0E94 0000 		call yackbeat
 154 0106 C8E0      		ldi r28,lo8(8)
 155               	.L21:
 156 0108 459A      		sbi 0x8,5
 157 010a 0E94 0000 		call yackbeat
 158 010e 4598      		cbi 0x8,5
 159 0110 0E94 0000 		call yackbeat
 160 0114 C150      		subi r28,lo8(-(-1))
 161 0116 01F4      		brne .L21
 162 0118 459A      		sbi 0x8,5
 163 011a 449A      		sbi 0x8,4
 164               	/* epilogue start */
 165 011c CF91      		pop r28
 166 011e 0895      		ret
 169               	serviceKeyerMode:
 170 0120 1F93      		push r17
 171 0122 CF93      		push r28
 172 0124 DF93      		push r29
 173               	/* prologue: function */
 174               	/* frame size = 0 */
 175               	/* stack size = 3 */
 176               	.L__stack_usage = 3
 177 0126 182F      		mov r17,r24
 178 0128 D62F      		mov r29,r22
 179 012a C42F      		mov r28,r20
 180 012c 8130      		cpi r24,lo8(1)
 181 012e 01F4      		brne .L24
 182 0130 4630      		cpi r20,lo8(6)
 183 0132 01F0      		breq .L26
 184 0134 00F4      		brsh .L27
 185 0136 4530      		cpi r20,lo8(5)
 186 0138 01F0      		breq .+2
 187 013a 00C0      		rjmp .L25
 188 013c 1092 0000 		sts straight_key,__zero_reg__
 189 0140 80E0      		ldi r24,0
 190 0142 0E94 0000 		call yackinhibit
 191 0146 00C0      		rjmp .L44
 192               	.L27:
 193 0148 4730      		cpi r20,lo8(7)
 194 014a 01F0      		breq .L34
 195 014c 4830      		cpi r20,lo8(8)
 196 014e 01F0      		breq .L32
 197 0150 00C0      		rjmp .L25
 198               	.L26:
 199 0152 81E0      		ldi r24,lo8(1)
 200 0154 0E94 0000 		call yackinhibit
 201 0158 1093 0000 		sts straight_key,r17
 202 015c 00C0      		rjmp .L43
 203               	.L24:
 204 015e 6130      		cpi r22,lo8(1)
 205 0160 01F4      		brne .L31
 206 0162 4630      		cpi r20,lo8(6)
 207 0164 01F0      		breq .L32
 208 0166 00F4      		brsh .L33
 209 0168 4530      		cpi r20,lo8(5)
 210 016a 01F0      		breq .L34
 211 016c 00C0      		rjmp .L25
 212               	.L33:
 213 016e 4730      		cpi r20,lo8(7)
 214 0170 01F0      		breq .L35
 215 0172 4830      		cpi r20,lo8(8)
 216 0174 01F0      		breq .+2
 217 0176 00C0      		rjmp .L25
 218 0178 81E0      		ldi r24,lo8(1)
 219 017a 0E94 0000 		call yackinhibit
 220 017e D093 0000 		sts straight_key,r29
 221               	.L43:
 222 0182 C7E0      		ldi r28,lo8(7)
 223 0184 00C0      		rjmp .L25
 224               	.L35:
 225 0186 80E0      		ldi r24,0
 226 0188 0E94 0000 		call yackinhibit
 227 018c 1092 0000 		sts straight_key,__zero_reg__
 228               	.L44:
 229 0190 84E0      		ldi r24,lo8(4)
 230 0192 0E94 0000 		call yackmode
 231 0196 C6E0      		ldi r28,lo8(6)
 232 0198 00C0      		rjmp .L25
 233               	.L32:
 234 019a 1092 0000 		sts straight_key,__zero_reg__
 235 019e 80E0      		ldi r24,0
 236 01a0 0E94 0000 		call yackinhibit
 237 01a4 80E0      		ldi r24,0
 238 01a6 0E94 0000 		call yackmode
 239 01aa C5E0      		ldi r28,lo8(5)
 240 01ac 00C0      		rjmp .L25
 241               	.L34:
 242 01ae 1092 0000 		sts straight_key,__zero_reg__
 243 01b2 80E0      		ldi r24,0
 244 01b4 0E94 0000 		call yackinhibit
 245 01b8 88E0      		ldi r24,lo8(8)
 246 01ba 0E94 0000 		call yackmode
 247 01be C8E0      		ldi r28,lo8(8)
 248 01c0 00C0      		rjmp .L25
 249               	.L31:
 250 01c2 4630      		cpi r20,lo8(6)
 251 01c4 01F0      		breq .L37
 252 01c6 00F4      		brsh .L38
 253 01c8 4530      		cpi r20,lo8(5)
 254 01ca 01F4      		brne .L25
 255 01cc 1092 0000 		sts straight_key,__zero_reg__
 256 01d0 80E0      		ldi r24,0
 257 01d2 0E94 0000 		call yackinhibit
 258 01d6 80E0      		ldi r24,0
 259 01d8 00C0      		rjmp .L42
 260               	.L38:
 261 01da 4730      		cpi r20,lo8(7)
 262 01dc 01F0      		breq .L40
 263 01de 4830      		cpi r20,lo8(8)
 264 01e0 01F4      		brne .L25
 265 01e2 1092 0000 		sts straight_key,__zero_reg__
 266 01e6 80E0      		ldi r24,0
 267 01e8 0E94 0000 		call yackinhibit
 268 01ec 88E0      		ldi r24,lo8(8)
 269 01ee 00C0      		rjmp .L42
 270               	.L40:
 271 01f0 81E0      		ldi r24,lo8(1)
 272 01f2 0E94 0000 		call yackinhibit
 273 01f6 81E0      		ldi r24,lo8(1)
 274 01f8 8093 0000 		sts straight_key,r24
 275 01fc 00C0      		rjmp .L25
 276               	.L37:
 277 01fe 80E0      		ldi r24,0
 278 0200 0E94 0000 		call yackinhibit
 279 0204 1092 0000 		sts straight_key,__zero_reg__
 280 0208 84E0      		ldi r24,lo8(4)
 281               	.L42:
 282 020a 0E94 0000 		call yackmode
 283               	.L25:
 284 020e 8C2F      		mov r24,r28
 285               	/* epilogue start */
 286 0210 DF91      		pop r29
 287 0212 CF91      		pop r28
 288 0214 1F91      		pop r17
 289 0216 0895      		ret
 292               	serviceFreq.part.1:
 293 0218 CF92      		push r12
 294 021a DF92      		push r13
 295 021c EF92      		push r14
 296 021e FF92      		push r15
 297               	/* prologue: function */
 298               	/* frame size = 0 */
 299               	/* stack size = 4 */
 300               	.L__stack_usage = 4
 301 0220 FC01      		movw r30,r24
 302 0222 4091 0000 		lds r20,storedRotA
 303 0226 5091 0000 		lds r21,storedRotA+1
 304 022a 2091 0000 		lds r18,storedRotB
 305 022e 3091 0000 		lds r19,storedRotB+1
 306 0232 8281      		ldd r24,Z+2
 307 0234 9381      		ldd r25,Z+3
 308 0236 A481      		ldd r26,Z+4
 309 0238 B581      		ldd r27,Z+5
 310 023a 4217      		cp r20,r18
 311 023c 5307      		cpc r21,r19
 312 023e 01F4      		brne .L46
 313 0240 4081      		ld r20,Z
 314 0242 5181      		ldd r21,Z+1
 315 0244 60E0      		ldi r22,0
 316 0246 70E0      		ldi r23,0
 317 0248 841B      		sub r24,r20
 318 024a 950B      		sbc r25,r21
 319 024c A60B      		sbc r26,r22
 320 024e B70B      		sbc r27,r23
 321 0250 C684      		ldd r12,Z+14
 322 0252 D784      		ldd r13,Z+15
 323 0254 E088      		ldd r14,Z+16
 324 0256 F188      		ldd r15,Z+17
 325 0258 C816      		cp r12,r24
 326 025a D906      		cpc r13,r25
 327 025c EA06      		cpc r14,r26
 328 025e FB06      		cpc r15,r27
 329 0260 00F4      		brsh .L47
 330 0262 8283      		std Z+2,r24
 331 0264 9383      		std Z+3,r25
 332 0266 A483      		std Z+4,r26
 333 0268 B583      		std Z+5,r27
 334 026a 8681      		ldd r24,Z+6
 335 026c 9781      		ldd r25,Z+7
 336 026e A085      		ldd r26,Z+8
 337 0270 B185      		ldd r27,Z+9
 338 0272 841B      		sub r24,r20
 339 0274 950B      		sbc r25,r21
 340 0276 A60B      		sbc r26,r22
 341 0278 B70B      		sbc r27,r23
 342 027a 8683      		std Z+6,r24
 343 027c 9783      		std Z+7,r25
 344 027e A087      		std Z+8,r26
 345 0280 B187      		std Z+9,r27
 346 0282 00C0      		rjmp .L47
 347               	.L46:
 348 0284 4091 0000 		lds r20,storedRotA
 349 0288 5091 0000 		lds r21,storedRotA+1
 350 028c 2091 0000 		lds r18,storedRotB
 351 0290 3091 0000 		lds r19,storedRotB+1
 352 0294 4217      		cp r20,r18
 353 0296 5307      		cpc r21,r19
 354 0298 01F0      		breq .L47
 355 029a 4081      		ld r20,Z
 356 029c 5181      		ldd r21,Z+1
 357 029e 60E0      		ldi r22,0
 358 02a0 70E0      		ldi r23,0
 359 02a2 840F      		add r24,r20
 360 02a4 951F      		adc r25,r21
 361 02a6 A61F      		adc r26,r22
 362 02a8 B71F      		adc r27,r23
 363 02aa C284      		ldd r12,Z+10
 364 02ac D384      		ldd r13,Z+11
 365 02ae E484      		ldd r14,Z+12
 366 02b0 F584      		ldd r15,Z+13
 367 02b2 8C15      		cp r24,r12
 368 02b4 9D05      		cpc r25,r13
 369 02b6 AE05      		cpc r26,r14
 370 02b8 BF05      		cpc r27,r15
 371 02ba 00F4      		brsh .L47
 372 02bc 8283      		std Z+2,r24
 373 02be 9383      		std Z+3,r25
 374 02c0 A483      		std Z+4,r26
 375 02c2 B583      		std Z+5,r27
 376 02c4 8681      		ldd r24,Z+6
 377 02c6 9781      		ldd r25,Z+7
 378 02c8 A085      		ldd r26,Z+8
 379 02ca B185      		ldd r27,Z+9
 380 02cc 480F      		add r20,r24
 381 02ce 591F      		adc r21,r25
 382 02d0 6A1F      		adc r22,r26
 383 02d2 7B1F      		adc r23,r27
 384 02d4 4683      		std Z+6,r20
 385 02d6 5783      		std Z+7,r21
 386 02d8 6087      		std Z+8,r22
 387 02da 7187      		std Z+9,r23
 388               	.L47:
 389 02dc C280      		ldd r12,Z+2
 390 02de D380      		ldd r13,Z+3
 391 02e0 E480      		ldd r14,Z+4
 392 02e2 F580      		ldd r15,Z+5
 393 02e4 C701      		movw r24,r14
 394 02e6 B601      		movw r22,r12
 395 02e8 0E94 0000 		call si5351aSetFrequency
 396 02ec D701      		movw r26,r14
 397 02ee C601      		movw r24,r12
 398 02f0 22E0      		ldi r18,2
 399               		1:
 400 02f2 B695      		lsr r27
 401 02f4 A795      		ror r26
 402 02f6 9795      		ror r25
 403 02f8 8795      		ror r24
 404 02fa 2A95      		dec r18
 405 02fc 01F4      		brne 1b
 406 02fe BC01      		movw r22,r24
 407 0300 CD01      		movw r24,r26
 408 0302 6A58      		subi r22,-118
 409 0304 7240      		sbci r23,2
 410 0306 8109      		sbc r24,__zero_reg__
 411 0308 9109      		sbc r25,__zero_reg__
 412 030a 0E94 0000 		call si5351aSetTXFrequency
 413 030e 4091 0000 		lds r20,battery_state
 414 0312 C701      		movw r24,r14
 415 0314 B601      		movw r22,r12
 416 0316 0E94 0000 		call displayFreq
 417 031a 0E94 0000 		call ssd1306Refresh
 418 031e 1092 0000 		sts rotEncChange+1,__zero_reg__
 419 0322 1092 0000 		sts rotEncChange,__zero_reg__
 420               	/* epilogue start */
 421 0326 FF90      		pop r15
 422 0328 EF90      		pop r14
 423 032a DF90      		pop r13
 424 032c CF90      		pop r12
 425 032e 0895      		ret
 428               	ChangeBand:
 429 0330 CF93      		push r28
 430 0332 DF93      		push r29
 431               	/* prologue: function */
 432               	/* frame size = 0 */
 433               	/* stack size = 2 */
 434               	.L__stack_usage = 2
 435 0334 EB01      		movw r28,r22
 436 0336 8A30      		cpi r24,lo8(10)
 437 0338 01F0      		breq .L50
 438 033a 8E30      		cpi r24,lo8(14)
 439 033c 01F0      		breq .+2
 440 033e 00C0      		rjmp .L49
 441 0340 5B98      		cbi 0xb,3
 442 0342 5C98      		cbi 0xb,4
 443 0344 5B9A      		sbi 0xb,3
 444 0346 5C98      		cbi 0xb,4
 445 0348 0E94 0000 		call yackbeat
 446 034c 5B98      		cbi 0xb,3
 447 034e 5C98      		cbi 0xb,4
 448 0350 88EE      		ldi r24,lo8(-24)
 449 0352 90E5      		ldi r25,lo8(80)
 450 0354 AAE5      		ldi r26,lo8(90)
 451 0356 B3E0      		ldi r27,lo8(3)
 452 0358 8A83      		std Y+2,r24
 453 035a 9B83      		std Y+3,r25
 454 035c AC83      		std Y+4,r26
 455 035e BD83      		std Y+5,r27
 456 0360 8E83      		std Y+6,r24
 457 0362 9F83      		std Y+7,r25
 458 0364 A887      		std Y+8,r26
 459 0366 B987      		std Y+9,r27
 460 0368 88EA      		ldi r24,lo8(-88)
 461 036a 92EA      		ldi r25,lo8(-94)
 462 036c ACE5      		ldi r26,lo8(92)
 463 036e B3E0      		ldi r27,lo8(3)
 464 0370 8A87      		std Y+10,r24
 465 0372 9B87      		std Y+11,r25
 466 0374 AC87      		std Y+12,r26
 467 0376 BD87      		std Y+13,r27
 468 0378 88E2      		ldi r24,lo8(40)
 469 037a 98E8      		ldi r25,lo8(-120)
 470 037c A6E5      		ldi r26,lo8(86)
 471 037e B3E0      		ldi r27,lo8(3)
 472 0380 00C0      		rjmp .L53
 473               	.L50:
 474 0382 5B98      		cbi 0xb,3
 475 0384 5C98      		cbi 0xb,4
 476 0386 5B98      		cbi 0xb,3
 477 0388 5C9A      		sbi 0xb,4
 478 038a 0E94 0000 		call yackbeat
 479 038e 5B98      		cbi 0xb,3
 480 0390 5C98      		cbi 0xb,4
 481 0392 88EE      		ldi r24,lo8(-24)
 482 0394 97E9      		ldi r25,lo8(-105)
 483 0396 A9E6      		ldi r26,lo8(105)
 484 0398 B2E0      		ldi r27,lo8(2)
 485 039a 8A83      		std Y+2,r24
 486 039c 9B83      		std Y+3,r25
 487 039e AC83      		std Y+4,r26
 488 03a0 BD83      		std Y+5,r27
 489 03a2 8E83      		std Y+6,r24
 490 03a4 9F83      		std Y+7,r25
 491 03a6 A887      		std Y+8,r26
 492 03a8 B987      		std Y+9,r27
 493 03aa 88EE      		ldi r24,lo8(-24)
 494 03ac 9BE8      		ldi r25,lo8(-117)
 495 03ae ABE6      		ldi r26,lo8(107)
 496 03b0 B2E0      		ldi r27,lo8(2)
 497 03b2 8A87      		std Y+10,r24
 498 03b4 9B87      		std Y+11,r25
 499 03b6 AC87      		std Y+12,r26
 500 03b8 BD87      		std Y+13,r27
 501 03ba 88EA      		ldi r24,lo8(-88)
 502 03bc 9EE7      		ldi r25,lo8(126)
 503 03be A8E6      		ldi r26,lo8(104)
 504 03c0 B2E0      		ldi r27,lo8(2)
 505               	.L53:
 506 03c2 8E87      		std Y+14,r24
 507 03c4 9F87      		std Y+15,r25
 508 03c6 A88B      		std Y+16,r26
 509 03c8 B98B      		std Y+17,r27
 510               	.L49:
 511 03ca 81E0      		ldi r24,lo8(1)
 512 03cc 90E0      		ldi r25,0
 513 03ce 9093 0000 		sts rotEncChange+1,r25
 514 03d2 8093 0000 		sts rotEncChange,r24
 515 03d6 8091 0000 		lds r24,rotEncChange
 516 03da 9091 0000 		lds r25,rotEncChange+1
 517 03de 0197      		sbiw r24,1
 518 03e0 01F4      		brne .L48
 519 03e2 CE01      		movw r24,r28
 520               	/* epilogue start */
 521 03e4 DF91      		pop r29
 522 03e6 CF91      		pop r28
 523 03e8 0C94 0000 		jmp serviceFreq.part.1
 524               	.L48:
 525               	/* epilogue start */
 526 03ec DF91      		pop r29
 527 03ee CF91      		pop r28
 528 03f0 0895      		ret
 530               	.global	__vector_16
 532               	__vector_16:
 533 03f2 1F92      		push r1
 534 03f4 0F92      		push r0
 535 03f6 0FB6      		in r0,__SREG__
 536 03f8 0F92      		push r0
 537 03fa 1124      		clr __zero_reg__
 538 03fc 8F93      		push r24
 539               	/* prologue: Signal */
 540               	/* frame size = 0 */
 541               	/* stack size = 4 */
 542               	.L__stack_usage = 4
 543 03fe 8BB1      		in r24,0xb
 544 0400 85FB      		bst r24,5
 545 0402 8827      		clr r24
 546 0404 80F9      		bld r24,0
 547 0406 80FF      		sbrs r24,0
 548 0408 5D9A      		sbi 0xb,5
 549 040a 80FD      		sbrc r24,0
 550 040c 5D98      		cbi 0xb,5
 551               	/* epilogue start */
 552 040e 8F91      		pop r24
 553 0410 0F90      		pop r0
 554 0412 0FBE      		out __SREG__,r0
 555 0414 0F90      		pop r0
 556 0416 1F90      		pop r1
 557 0418 1895      		reti
 559               	.global	__vector_6
 561               	__vector_6:
 562 041a 1F92      		push r1
 563 041c 0F92      		push r0
 564 041e 0FB6      		in r0,__SREG__
 565 0420 0F92      		push r0
 566 0422 1124      		clr __zero_reg__
 567 0424 2F93      		push r18
 568 0426 3F93      		push r19
 569 0428 8F93      		push r24
 570 042a 9F93      		push r25
 571               	/* prologue: Signal */
 572               	/* frame size = 0 */
 573               	/* stack size = 7 */
 574               	.L__stack_usage = 7
 575 042c 86B1      		in r24,0x6
 576 042e 87FB      		bst r24,7
 577 0430 8827      		clr r24
 578 0432 80F9      		bld r24,0
 579 0434 90E0      		ldi r25,0
 580 0436 9093 0000 		sts storedRotA+1,r25
 581 043a 8093 0000 		sts storedRotA,r24
 582 043e 86B1      		in r24,0x6
 583 0440 86FB      		bst r24,6
 584 0442 2227      		clr r18
 585 0444 20F9      		bld r18,0
 586 0446 30E0      		ldi r19,0
 587 0448 3093 0000 		sts storedRotB+1,r19
 588 044c 2093 0000 		sts storedRotB,r18
 589 0450 81E0      		ldi r24,lo8(1)
 590 0452 90E0      		ldi r25,0
 591 0454 9093 0000 		sts rotEncChange+1,r25
 592 0458 8093 0000 		sts rotEncChange,r24
 593 045c 1092 0000 		sts enableMemoryReplay,__zero_reg__
 594               	/* epilogue start */
 595 0460 9F91      		pop r25
 596 0462 8F91      		pop r24
 597 0464 3F91      		pop r19
 598 0466 2F91      		pop r18
 599 0468 0F90      		pop r0
 600 046a 0FBE      		out __SREG__,r0
 601 046c 0F90      		pop r0
 602 046e 1F90      		pop r1
 603 0470 1895      		reti
 605               	.global	__floatunsisf
 606               	.global	__mulsf3
 607               	.global	__divsf3
 608               	.global	__fixunssfsi
 609               	.global	__addsf3
 610               	.global	__subsf3
 611               	.global	getVSWR
 613               	getVSWR:
 614 0472 4F92      		push r4
 615 0474 5F92      		push r5
 616 0476 6F92      		push r6
 617 0478 7F92      		push r7
 618 047a 8F92      		push r8
 619 047c 9F92      		push r9
 620 047e AF92      		push r10
 621 0480 BF92      		push r11
 622 0482 CF92      		push r12
 623 0484 DF92      		push r13
 624 0486 EF92      		push r14
 625 0488 FF92      		push r15
 626               	/* prologue: function */
 627               	/* frame size = 0 */
 628               	/* stack size = 12 */
 629               	.L__stack_usage = 12
 630 048a 1092 7C00 		sts 124,__zero_reg__
 631 048e 8091 7A00 		lds r24,122
 632 0492 8068      		ori r24,lo8(-128)
 633 0494 8093 7A00 		sts 122,r24
 634 0498 8091 7A00 		lds r24,122
 635 049c 8064      		ori r24,lo8(64)
 636 049e 8093 7A00 		sts 122,r24
 637               	.L57:
 638 04a2 8091 7A00 		lds r24,122
 639 04a6 86FD      		sbrc r24,6
 640 04a8 00C0      		rjmp .L57
 641 04aa 8091 7A00 		lds r24,122
 642 04ae 8068      		ori r24,lo8(-128)
 643 04b0 8093 7A00 		sts 122,r24
 644 04b4 8091 7A00 		lds r24,122
 645 04b8 8064      		ori r24,lo8(64)
 646 04ba 8093 7A00 		sts 122,r24
 647               	.L58:
 648 04be 8091 7A00 		lds r24,122
 649 04c2 86FD      		sbrc r24,6
 650 04c4 00C0      		rjmp .L58
 651 04c6 6091 7800 		lds r22,120
 652 04ca 8091 7900 		lds r24,121
 653 04ce 70E0      		ldi r23,0
 654 04d0 782B      		or r23,r24
 655 04d2 80E0      		ldi r24,0
 656 04d4 90E0      		ldi r25,0
 657 04d6 0E94 0000 		call __floatunsisf
 658 04da 20E0      		ldi r18,0
 659 04dc 30E0      		ldi r19,0
 660 04de 40EA      		ldi r20,lo8(-96)
 661 04e0 50E4      		ldi r21,lo8(64)
 662 04e2 0E94 0000 		call __mulsf3
 663 04e6 20E0      		ldi r18,0
 664 04e8 30EC      		ldi r19,lo8(-64)
 665 04ea 4FE7      		ldi r20,lo8(127)
 666 04ec 54E4      		ldi r21,lo8(68)
 667 04ee 0E94 0000 		call __divsf3
 668 04f2 20E0      		ldi r18,0
 669 04f4 30E0      		ldi r19,0
 670 04f6 4AE7      		ldi r20,lo8(122)
 671 04f8 54E4      		ldi r21,lo8(68)
 672 04fa 0E94 0000 		call __mulsf3
 673 04fe 0E94 0000 		call __fixunssfsi
 674 0502 6B01      		movw r12,r22
 675 0504 7C01      		movw r14,r24
 676 0506 81E0      		ldi r24,lo8(1)
 677 0508 8093 7C00 		sts 124,r24
 678 050c 8091 7A00 		lds r24,122
 679 0510 8068      		ori r24,lo8(-128)
 680 0512 8093 7A00 		sts 122,r24
 681 0516 8091 7A00 		lds r24,122
 682 051a 8064      		ori r24,lo8(64)
 683 051c 8093 7A00 		sts 122,r24
 684               	.L59:
 685 0520 8091 7A00 		lds r24,122
 686 0524 86FD      		sbrc r24,6
 687 0526 00C0      		rjmp .L59
 688 0528 8091 7A00 		lds r24,122
 689 052c 8068      		ori r24,lo8(-128)
 690 052e 8093 7A00 		sts 122,r24
 691 0532 8091 7A00 		lds r24,122
 692 0536 8064      		ori r24,lo8(64)
 693 0538 8093 7A00 		sts 122,r24
 694               	.L60:
 695 053c 8091 7A00 		lds r24,122
 696 0540 86FD      		sbrc r24,6
 697 0542 00C0      		rjmp .L60
 698 0544 8091 7800 		lds r24,120
 699 0548 9091 7900 		lds r25,121
 700 054c 682F      		mov r22,r24
 701 054e 70E0      		ldi r23,0
 702 0550 792B      		or r23,r25
 703 0552 80E0      		ldi r24,0
 704 0554 90E0      		ldi r25,0
 705 0556 0E94 0000 		call __floatunsisf
 706 055a 20E0      		ldi r18,0
 707 055c 30E0      		ldi r19,0
 708 055e 40EA      		ldi r20,lo8(-96)
 709 0560 50E4      		ldi r21,lo8(64)
 710 0562 0E94 0000 		call __mulsf3
 711 0566 20E0      		ldi r18,0
 712 0568 30EC      		ldi r19,lo8(-64)
 713 056a 4FE7      		ldi r20,lo8(127)
 714 056c 54E4      		ldi r21,lo8(68)
 715 056e 0E94 0000 		call __divsf3
 716 0572 4B01      		movw r8,r22
 717 0574 5C01      		movw r10,r24
 718 0576 B601      		movw r22,r12
 719 0578 80E0      		ldi r24,0
 720 057a 90E0      		ldi r25,0
 721 057c 0E94 0000 		call __floatunsisf
 722 0580 6B01      		movw r12,r22
 723 0582 7C01      		movw r14,r24
 724 0584 20E0      		ldi r18,0
 725 0586 30E0      		ldi r19,0
 726 0588 4AE7      		ldi r20,lo8(122)
 727 058a 54E4      		ldi r21,lo8(68)
 728 058c C501      		movw r24,r10
 729 058e B401      		movw r22,r8
 730 0590 0E94 0000 		call __mulsf3
 731 0594 0E94 0000 		call __fixunssfsi
 732 0598 80E0      		ldi r24,0
 733 059a 90E0      		ldi r25,0
 734 059c 0E94 0000 		call __floatunsisf
 735 05a0 4B01      		movw r8,r22
 736 05a2 5C01      		movw r10,r24
 737 05a4 9B01      		movw r18,r22
 738 05a6 AC01      		movw r20,r24
 739 05a8 C701      		movw r24,r14
 740 05aa B601      		movw r22,r12
 741 05ac 0E94 0000 		call __addsf3
 742 05b0 2B01      		movw r4,r22
 743 05b2 3C01      		movw r6,r24
 744 05b4 A501      		movw r20,r10
 745 05b6 9401      		movw r18,r8
 746 05b8 C701      		movw r24,r14
 747 05ba B601      		movw r22,r12
 748 05bc 0E94 0000 		call __subsf3
 749 05c0 9B01      		movw r18,r22
 750 05c2 AC01      		movw r20,r24
 751 05c4 C301      		movw r24,r6
 752 05c6 B201      		movw r22,r4
 753 05c8 0E94 0000 		call __divsf3
 754 05cc 20E0      		ldi r18,0
 755 05ce 30E0      		ldi r19,0
 756 05d0 40E2      		ldi r20,lo8(32)
 757 05d2 51E4      		ldi r21,lo8(65)
 758 05d4 0E94 0000 		call __mulsf3
 759 05d8 20E0      		ldi r18,0
 760 05da 30E0      		ldi r19,0
 761 05dc 40E0      		ldi r20,0
 762 05de 5FE3      		ldi r21,lo8(63)
 763 05e0 0E94 0000 		call __addsf3
 764 05e4 0E94 0000 		call __fixunssfsi
 765 05e8 CB01      		movw r24,r22
 766               	/* epilogue start */
 767 05ea FF90      		pop r15
 768 05ec EF90      		pop r14
 769 05ee DF90      		pop r13
 770 05f0 CF90      		pop r12
 771 05f2 BF90      		pop r11
 772 05f4 AF90      		pop r10
 773 05f6 9F90      		pop r9
 774 05f8 8F90      		pop r8
 775 05fa 7F90      		pop r7
 776 05fc 6F90      		pop r6
 777 05fe 5F90      		pop r5
 778 0600 4F90      		pop r4
 779 0602 0895      		ret
 781               	.global	transistion_to_rx
 783               	transistion_to_rx:
 784               	/* prologue: function */
 785               	/* frame size = 0 */
 786               	/* stack size = 0 */
 787               	.L__stack_usage = 0
 788 0604 1092 0000 		sts txKeyed,__zero_reg__
 789 0608 5E98      		cbi 0xb,6
 790               	/* #APP */
 791               	 ;  1192 "main.c" 1
 792 060a F894      		cli
 793               	 ;  0 "" 2
 794               	/* #NOAPP */
 795 060c 60E0      		ldi r22,0
 796 060e 82E0      		ldi r24,lo8(2)
 797 0610 0E94 0000 		call si5351_clock_enable
 798               	/* #APP */
 799               	 ;  1194 "main.c" 1
 800 0614 7894      		sei
 801               	 ;  0 "" 2
 802               	/* #NOAPP */
 803 0616 0895      		ret
 805               	.global	transition_to_tx
 807               	transition_to_tx:
 808               	/* prologue: function */
 809               	/* frame size = 0 */
 810               	/* stack size = 0 */
 811               	.L__stack_usage = 0
 812 0618 81E0      		ldi r24,lo8(1)
 813 061a 8093 0000 		sts txKeyed,r24
 814 061e 5E9A      		sbi 0xb,6
 815               	/* #APP */
 816               	 ;  1200 "main.c" 1
 817 0620 F894      		cli
 818               	 ;  0 "" 2
 819               	/* #NOAPP */
 820 0622 61E0      		ldi r22,lo8(1)
 821 0624 82E0      		ldi r24,lo8(2)
 822 0626 0E94 0000 		call si5351_clock_enable
 823               	/* #APP */
 824               	 ;  1202 "main.c" 1
 825 062a 7894      		sei
 826               	 ;  0 "" 2
 827               	/* #NOAPP */
 828 062c 0895      		ret
 830               		.section	.rodata.str1.1,"aMS",@progbits,1
 831               	.LC0:
 832 0000 4D35 4556 		.string	"M5EVT/P"
 832      542F 5000 
 833               	.LC1:
 834 0008 4351 2043 		.string	"CQ CQ CQ de"
 834      5120 4351 
 834      2064 6500 
 835               	.LC2:
 836 0014 4351 2053 		.string	"CQ SOTA CQ SOTA de"
 836      4F54 4120 
 836      4351 2053 
 836      4F54 4120 
 836      6465 00
 837               	.LC3:
 838 0027 2573 2025 		.string	"%s %s %s %s"
 838      7320 2573 
 838      2025 7300 
 839               	.LC4:
 840 0033 5400      		.string	"T"
 841               	.LC5:
 842 0035 2042 4154 		.string	" BAT LOW "
 842      204C 4F57 
 842      2000 
 843               		.section	.text.startup,"ax",@progbits
 844               	.global	main
 846               	main:
 847 0000 CF93      		push r28
 848 0002 DF93      		push r29
 849 0004 CDB7      		in r28,__SP_L__
 850 0006 DEB7      		in r29,__SP_H__
 851 0008 C256      		subi r28,98
 852 000a D109      		sbc r29,__zero_reg__
 853 000c 0FB6      		in __tmp_reg__,__SREG__
 854 000e F894      		cli
 855 0010 DEBF      		out __SP_H__,r29
 856 0012 0FBE      		out __SREG__,__tmp_reg__
 857 0014 CDBF      		out __SP_L__,r28
 858               	/* prologue: function */
 859               	/* frame size = 98 */
 860               	/* stack size = 100 */
 861               	.L__stack_usage = 100
 862 0016 5A98      		cbi 0xb,2
 863 0018 5E9A      		sbi 0xb,6
 864 001a 60E0      		ldi r22,lo8(.LC0)
 865 001c 70E0      		ldi r23,hi8(.LC0)
 866 001e 80E0      		ldi r24,lo8(callStr)
 867 0020 90E0      		ldi r25,hi8(callStr)
 868 0022 0E94 0000 		call strcpy
 869 0026 46E1      		ldi r20,lo8(22)
 870 0028 50E0      		ldi r21,0
 871 002a 60E0      		ldi r22,lo8(ee_vars)
 872 002c 70E0      		ldi r23,hi8(ee_vars)
 873 002e CE01      		movw r24,r28
 874 0030 855B      		subi r24,-75
 875 0032 9F4F      		sbci r25,-1
 876 0034 0E94 0000 		call eeprom_read_block
 877 0038 88E9      		ldi r24,lo8(-104)
 878 003a 81B9      		out 0x1,r24
 879 003c 8FEF      		ldi r24,lo8(-1)
 880 003e 84B9      		out 0x4,r24
 881 0040 9BE3      		ldi r25,lo8(59)
 882 0042 97B9      		out 0x7,r25
 883 0044 8AB9      		out 0xa,r24
 884 0046 98EF      		ldi r25,lo8(-8)
 885 0048 92B9      		out 0x2,r25
 886 004a 85B9      		out 0x5,r24
 887 004c 88B9      		out 0x8,r24
 888 004e 8BEF      		ldi r24,lo8(-5)
 889 0050 8BB9      		out 0xb,r24
 890 0052 8091 6900 		lds r24,105
 891 0056 8062      		ori r24,lo8(32)
 892 0058 8093 6900 		sts 105,r24
 893 005c 8091 6800 		lds r24,104
 894 0060 8460      		ori r24,lo8(4)
 895 0062 8093 6800 		sts 104,r24
 896 0066 8091 6D00 		lds r24,109
 897 006a 8068      		ori r24,lo8(-128)
 898 006c 8093 6D00 		sts 109,r24
 899 0070 82E0      		ldi r24,lo8(2)
 900 0072 8093 6E00 		sts 110,r24
 901 0076 84BD      		out 0x24,r24
 902 0078 16BC      		out 0x26,__zero_reg__
 903 007a 83E0      		ldi r24,lo8(3)
 904 007c 85BD      		out 0x25,r24
 905 007e 80E6      		ldi r24,lo8(96)
 906 0080 87BD      		out 0x27,r24
 907 0082 1092 6F00 		sts 111,__zero_reg__
 908 0086 1092 8500 		sts 132+1,__zero_reg__
 909 008a 1092 8400 		sts 132,__zero_reg__
 910 008e 8091 8100 		lds r24,129
 911 0092 8B60      		ori r24,lo8(11)
 912 0094 8093 8100 		sts 129,r24
 913 0098 81E7      		ldi r24,lo8(113)
 914 009a 92E0      		ldi r25,lo8(2)
 915 009c 9093 8900 		sts 136+1,r25
 916 00a0 8093 8800 		sts 136,r24
 917 00a4 2898      		cbi 0x5,0
 918 00a6 2998      		cbi 0x5,1
 919 00a8 0E94 0000 		call yackbeat
 920 00ac 289A      		sbi 0x5,0
 921 00ae 2998      		cbi 0x5,1
 922 00b0 0E94 0000 		call yackbeat
 923 00b4 2898      		cbi 0x5,0
 924 00b6 2998      		cbi 0x5,1
 925 00b8 80E0      		ldi r24,lo8(magic)
 926 00ba 90E0      		ldi r25,hi8(magic)
 927 00bc 0E94 0000 		call eeprom_read_byte
 928 00c0 853A      		cpi r24,lo8(-91)
 929 00c2 01F4      		brne .L68
 930 00c4 4CE0      		ldi r20,lo8(12)
 931 00c6 50E0      		ldi r21,0
 932 00c8 BE01      		movw r22,r28
 933 00ca 655B      		subi r22,-75
 934 00cc 7F4F      		sbci r23,-1
 935 00ce 80E0      		ldi r24,lo8(callStr)
 936 00d0 90E0      		ldi r25,hi8(callStr)
 937 00d2 0E94 0000 		call strncpy
 938 00d6 6B96      		adiw r28,90-63
 939 00d8 4FAD      		ldd r20,Y+63
 940 00da 6B97      		sbiw r28,90-63
 941 00dc 2B96      		adiw r28,74-63
 942 00de 4FAF      		std Y+63,r20
 943 00e0 2B97      		sbiw r28,74-63
 944 00e2 60E0      		ldi r22,0
 945 00e4 80E0      		ldi r24,0
 946 00e6 0E94 0000 		call serviceKeyerMode
 947 00ea 6C96      		adiw r28,91-63
 948 00ec 8FAD      		ldd r24,Y+63
 949 00ee 6C97      		sbiw r28,91-63
 950 00f0 8093 0000 		sts wpm,r24
 951 00f4 6E96      		adiw r28,93-63
 952 00f6 8FAD      		ldd r24,Y+63
 953 00f8 6E97      		sbiw r28,93-63
 954 00fa 2A96      		adiw r28,73-63
 955 00fc 8FAF      		std Y+63,r24
 956 00fe 2A97      		sbiw r28,73-63
 957 0100 6D96      		adiw r28,92-63
 958 0102 8FAD      		ldd r24,Y+63
 959 0104 6D97      		sbiw r28,92-63
 960 0106 2896      		adiw r28,71-63
 961 0108 8FAF      		std Y+63,r24
 962 010a 2897      		sbiw r28,71-63
 963 010c 6F96      		adiw r28,94-63
 964 010e 8FAD      		ldd r24,Y+63
 965 0110 6F97      		sbiw r28,94-63
 966 0112 2996      		adiw r28,72-63
 967 0114 8FAF      		std Y+63,r24
 968 0116 2997      		sbiw r28,72-63
 969 0118 A196      		adiw r28,95-62
 970 011a 8EAD      		ldd r24,Y+62
 971 011c 9FAD      		ldd r25,Y+63
 972 011e A197      		sbiw r28,95-62
 973 0120 00C0      		rjmp .L288
 974               	.L68:
 975 0122 85E0      		ldi r24,lo8(5)
 976 0124 2B96      		adiw r28,74-63
 977 0126 8FAF      		std Y+63,r24
 978 0128 2B97      		sbiw r28,74-63
 979 012a 92E1      		ldi r25,lo8(18)
 980 012c 9093 0000 		sts wpm,r25
 981 0130 2896      		adiw r28,71-63
 982 0132 1FAE      		std Y+63,__zero_reg__
 983 0134 2897      		sbiw r28,71-63
 984 0136 2996      		adiw r28,72-63
 985 0138 8FAF      		std Y+63,r24
 986 013a 2997      		sbiw r28,72-63
 987 013c 8AE0      		ldi r24,lo8(10)
 988 013e 2A96      		adiw r28,73-63
 989 0140 8FAF      		std Y+63,r24
 990 0142 2A97      		sbiw r28,73-63
 991 0144 88EE      		ldi r24,lo8(-24)
 992 0146 93E0      		ldi r25,lo8(3)
 993               	.L288:
 994 0148 9CAB      		std Y+52,r25
 995 014a 8BAB      		std Y+51,r24
 996 014c BE01      		movw r22,r28
 997 014e 6D5C      		subi r22,-51
 998 0150 7F4F      		sbci r23,-1
 999 0152 2A96      		adiw r28,73-63
 1000 0154 8FAD      		ldd r24,Y+63
 1001 0156 2A97      		sbiw r28,73-63
 1002 0158 0E94 0000 		call ChangeBand
 1003 015c 1092 0000 		sts memoryReplayNow,__zero_reg__
 1004 0160 1092 0000 		sts enableMemoryReplay,__zero_reg__
 1005 0164 81E0      		ldi r24,lo8(1)
 1006 0166 0E94 0000 		call ssd1306Init
 1007 016a 0E94 0000 		call ssd1306ClearScreen
 1008 016e 0E94 0000 		call ssd1306Refresh
 1009               	/* #APP */
 1010               	 ;  169 "main.c" 1
 1011 0172 7894      		sei
 1012               	 ;  0 "" 2
 1013               	/* #NOAPP */
 1014 0174 0E94 0000 		call i2c_init
 1015 0178 6DA9      		ldd r22,Y+53
 1016 017a 7EA9      		ldd r23,Y+54
 1017 017c 8FA9      		ldd r24,Y+55
 1018 017e 98AD      		ldd r25,Y+56
 1019 0180 0E94 0000 		call si5351aSetInitFrequency
 1020 0184 8DA9      		ldd r24,Y+53
 1021 0186 9EA9      		ldd r25,Y+54
 1022 0188 AFA9      		ldd r26,Y+55
 1023 018a B8AD      		ldd r27,Y+56
 1024 018c 12E0      		ldi r17,2
 1025               		1:
 1026 018e B695      		lsr r27
 1027 0190 A795      		ror r26
 1028 0192 9795      		ror r25
 1029 0194 8795      		ror r24
 1030 0196 1A95      		dec r17
 1031 0198 01F4      		brne 1b
 1032 019a BC01      		movw r22,r24
 1033 019c CD01      		movw r24,r26
 1034 019e 6A58      		subi r22,-118
 1035 01a0 7240      		sbci r23,2
 1036 01a2 8109      		sbc r24,__zero_reg__
 1037 01a4 9109      		sbc r25,__zero_reg__
 1038 01a6 0E94 0000 		call si5351aSetInitTXFrequency
 1039 01aa 60E0      		ldi r22,0
 1040 01ac 82E0      		ldi r24,lo8(2)
 1041 01ae 0E94 0000 		call si5351_clock_enable
 1042 01b2 0E94 0000 		call yackinit
 1043 01b6 08E0      		ldi r16,lo8(8)
 1044 01b8 10E0      		ldi r17,0
 1045               	.L70:
 1046 01ba 0E94 0000 		call volumeDOWNone
 1047 01be 0150      		subi r16,1
 1048 01c0 1109      		sbc r17,__zero_reg__
 1049 01c2 01F4      		brne .L70
 1050 01c4 0E94 0000 		call volumeUPone
 1051 01c8 04E0      		ldi r16,lo8(4)
 1052 01ca 10E0      		ldi r17,0
 1053 01cc 2796      		adiw r28,69-62
 1054 01ce 1FAF      		std Y+63,r17
 1055 01d0 0EAF      		std Y+62,r16
 1056 01d2 2797      		sbiw r28,69-62
 1057 01d4 0E94 0000 		call volumeUPone
 1058 01d8 2796      		adiw r28,69-62
 1059 01da 1FAF      		std Y+63,r17
 1060 01dc 0EAF      		std Y+62,r16
 1061 01de 2797      		sbiw r28,69-62
 1062 01e0 0E94 0000 		call volumeUPone
 1063 01e4 2796      		adiw r28,69-62
 1064 01e6 1FAF      		std Y+63,r17
 1065 01e8 0EAF      		std Y+62,r16
 1066 01ea 2797      		sbiw r28,69-62
 1067 01ec 0E94 0000 		call volumeUPone
 1068 01f0 2796      		adiw r28,69-62
 1069 01f2 1FAF      		std Y+63,r17
 1070 01f4 0EAF      		std Y+62,r16
 1071 01f6 2797      		sbiw r28,69-62
 1072 01f8 08E0      		ldi r16,lo8(8)
 1073 01fa 10E0      		ldi r17,0
 1074               	.L71:
 1075 01fc 0E94 0000 		call filterDOWNone
 1076 0200 0150      		subi r16,1
 1077 0202 1109      		sbc r17,__zero_reg__
 1078 0204 01F4      		brne .L71
 1079 0206 2896      		adiw r28,71-63
 1080 0208 8FAD      		ldd r24,Y+63
 1081 020a 2897      		sbiw r28,71-63
 1082 020c 8111      		cpse r24,__zero_reg__
 1083 020e 00C0      		rjmp .L72
 1084               	.L75:
 1085 0210 0E94 0000 		call ssd1306ClearScreen
 1086 0214 0E94 0000 		call serviceBattery
 1087 0218 6DA9      		ldd r22,Y+53
 1088 021a 7EA9      		ldd r23,Y+54
 1089 021c 8FA9      		ldd r24,Y+55
 1090 021e 98AD      		ldd r25,Y+56
 1091 0220 4091 0000 		lds r20,battery_state
 1092 0224 0E94 0000 		call displayFreq
 1093 0228 0E94 0000 		call ssd1306Refresh
 1094 022c 5E98      		cbi 0xb,6
 1095 022e 81E0      		ldi r24,lo8(1)
 1096 0230 0E94 0000 		call yackinhibit
 1097 0234 80E0      		ldi r24,lo8(callStr)
 1098 0236 90E0      		ldi r25,hi8(callStr)
 1099 0238 0E94 0000 		call yackstring
 1100 023c 80E0      		ldi r24,0
 1101 023e 0E94 0000 		call yackinhibit
 1102 0242 412C      		mov r4,__zero_reg__
 1103 0244 10E0      		ldi r17,0
 1104 0246 78E0      		ldi r23,lo8(8)
 1105 0248 E72E      		mov r14,r23
 1106 024a F12C      		mov r15,__zero_reg__
 1107 024c 6E01      		movw r12,r28
 1108 024e 21E6      		ldi r18,97
 1109 0250 C20E      		add r12,r18
 1110 0252 D11C      		adc r13,__zero_reg__
 1111 0254 CE01      		movw r24,r28
 1112 0256 0196      		adiw r24,1
 1113 0258 5C01      		movw r10,r24
 1114 025a E0EF      		ldi r30,lo8(-16)
 1115 025c 8E2E      		mov r8,r30
 1116 025e 912C      		mov r9,__zero_reg__
 1117 0260 F2E0      		ldi r31,lo8(2)
 1118 0262 2F2E      		mov r2,r31
 1119 0264 00C0      		rjmp .L73
 1120               	.L72:
 1121 0266 08E0      		ldi r16,lo8(8)
 1122 0268 10E0      		ldi r17,0
 1123               	.L74:
 1124 026a 0E94 0000 		call filterUPone
 1125 026e 0150      		subi r16,1
 1126 0270 1109      		sbc r17,__zero_reg__
 1127 0272 01F4      		brne .L74
 1128 0274 00C0      		rjmp .L75
 1129               	.L100:
 1130 0276 21E0      		ldi r18,lo8(1)
 1131 0278 6212      		cpse r6,r18
 1132 027a 00C0      		rjmp .L304
 1133               	.L119:
 1134 027c 8BA9      		ldd r24,Y+51
 1135 027e 9CA9      		ldd r25,Y+52
 1136 0280 9695      		lsr r25
 1137 0282 8795      		ror r24
 1138 0284 9695      		lsr r25
 1139 0286 8795      		ror r24
 1140 0288 31E0      		ldi r19,lo8(1)
 1141 028a 6312      		cpse r6,r19
 1142 028c 00C0      		rjmp .L122
 1143 028e 8233      		cpi r24,50
 1144 0290 9105      		cpc r25,__zero_reg__
 1145 0292 01F4      		brne .+2
 1146 0294 00C0      		rjmp .L135
 1147 0296 00F0      		brlo .+2
 1148 0298 00C0      		rjmp .L125
 1149 029a 8130      		cpi r24,1
 1150 029c 9105      		cpc r25,__zero_reg__
 1151 029e 01F4      		brne .+2
 1152 02a0 00C0      		rjmp .L191
 1153 02a2 8A30      		cpi r24,10
 1154 02a4 9105      		cpc r25,__zero_reg__
 1155 02a6 01F4      		brne .+2
 1156 02a8 00C0      		rjmp .L134
 1157               	.L126:
 1158 02aa 880F      		lsl r24
 1159 02ac 991F      		rol r25
 1160 02ae 880F      		lsl r24
 1161 02b0 991F      		rol r25
 1162 02b2 9CAB      		std Y+52,r25
 1163 02b4 8BAB      		std Y+51,r24
 1164 02b6 0E94 0000 		call clearMainArea
 1165 02ba 8BA9      		ldd r24,Y+51
 1166 02bc 9CA9      		ldd r25,Y+52
 1167 02be 9695      		lsr r25
 1168 02c0 8795      		ror r24
 1169 02c2 9695      		lsr r25
 1170 02c4 8795      		ror r24
 1171 02c6 0E94 0000 		call drawIntNumber
 1172 02ca 13E0      		ldi r17,lo8(3)
 1173               	.L294:
 1174 02cc 01E0      		ldi r16,lo8(1)
 1175               	.L96:
 1176 02ce F1E0      		ldi r31,lo8(1)
 1177 02d0 6F16      		cp r6,r31
 1178 02d2 01F4      		brne .+2
 1179 02d4 00C0      		rjmp .L112
 1180 02d6 7F16      		cp r7,r31
 1181 02d8 01F4      		brne .+2
 1182 02da 00C0      		rjmp .L112
 1183               	.L169:
 1184 02dc 21E0      		ldi r18,lo8(1)
 1185 02de 5216      		cp r5,r18
 1186 02e0 01F4      		brne .+2
 1187 02e2 00C0      		rjmp .L112
 1188               	.L185:
 1189 02e4 31E0      		ldi r19,lo8(1)
 1190 02e6 3316      		cp r3,r19
 1191 02e8 01F4      		brne .+2
 1192 02ea 00C0      		rjmp .L112
 1193               	.L170:
 1194 02ec 0130      		cpi r16,lo8(1)
 1195 02ee 01F4      		brne .+2
 1196 02f0 00C0      		rjmp .L148
 1197               	.L171:
 1198 02f2 88EC      		ldi r24,-56
 1199 02f4 E816      		cp r14,r24
 1200 02f6 F104      		cpc r15,__zero_reg__
 1201 02f8 01F4      		brne .L77
 1202 02fa 0E94 0000 		call serviceBattery
 1203 02fe E12C      		mov r14,__zero_reg__
 1204 0300 F12C      		mov r15,__zero_reg__
 1205               	.L77:
 1206 0302 8091 0000 		lds r24,battery_state
 1207 0306 8430      		cpi r24,lo8(4)
 1208 0308 01F0      		breq .+2
 1209 030a 00C0      		rjmp .L172
 1210 030c 81E0      		ldi r24,lo8(1)
 1211 030e 0E94 0000 		call yackinhibit
 1212 0312 80E0      		ldi r24,lo8(.LC5)
 1213 0314 90E0      		ldi r25,hi8(.LC5)
 1214 0316 0E94 0000 		call yackstring
 1215               	.L73:
 1216 031a 8091 0000 		lds r24,txKeyed
 1217 031e 8111      		cpse r24,__zero_reg__
 1218 0320 00C0      		rjmp .L77
 1219 0322 9FEF      		ldi r25,-1
 1220 0324 E91A      		sub r14,r25
 1221 0326 F90A      		sbc r15,r25
 1222 0328 1111      		cpse r17,__zero_reg__
 1223 032a 00C0      		rjmp .L78
 1224 032c 8091 0000 		lds r24,rotEncChange
 1225 0330 9091 0000 		lds r25,rotEncChange+1
 1226 0334 0197      		sbiw r24,1
 1227 0336 01F4      		brne .L79
 1228 0338 CE01      		movw r24,r28
 1229 033a C396      		adiw r24,51
 1230 033c 0E94 0000 		call serviceFreq.part.1
 1231 0340 00C0      		rjmp .L79
 1232               	.L78:
 1233 0342 1330      		cpi r17,lo8(3)
 1234 0344 00F0      		brlo .L79
 1235 0346 1630      		cpi r17,lo8(6)
 1236 0348 01F0      		breq .L79
 1237 034a 059B      		sbis 0,5
 1238 034c 00C0      		rjmp .L80
 1239 034e 0699      		sbic 0,6
 1240 0350 00C0      		rjmp .L79
 1241               	.L80:
 1242 0352 80E0      		ldi r24,0
 1243 0354 0E94 0000 		call yackinhibit
 1244 0358 0E94 0000 		call ssd1306ClearScreen
 1245 035c 6DA9      		ldd r22,Y+53
 1246 035e 7EA9      		ldd r23,Y+54
 1247 0360 8FA9      		ldd r24,Y+55
 1248 0362 98AD      		ldd r25,Y+56
 1249 0364 4091 0000 		lds r20,battery_state
 1250 0368 0E94 0000 		call displayFreq
 1251 036c 0E94 0000 		call ssd1306Refresh
 1252 0370 85E0      		ldi r24,lo8(5)
 1253 0372 0E94 0000 		call yackdelay
 1254 0376 10E0      		ldi r17,0
 1255               	.L79:
 1256 0378 2091 0000 		lds r18,enableMemoryReplay
 1257 037c 2130      		cpi r18,lo8(1)
 1258 037e 01F4      		brne .L81
 1259 0380 8091 0000 		lds r24,countDownMemoryTimer
 1260 0384 9091 0000 		lds r25,countDownMemoryTimer+1
 1261 0388 0197      		sbiw r24,1
 1262 038a 9093 0000 		sts countDownMemoryTimer+1,r25
 1263 038e 8093 0000 		sts countDownMemoryTimer,r24
 1264 0392 892B      		or r24,r25
 1265 0394 01F4      		brne .L81
 1266 0396 1092 0000 		sts enableMemoryReplay,__zero_reg__
 1267 039a 2093 0000 		sts memoryReplayNow,r18
 1268 039e 15E0      		ldi r17,lo8(5)
 1269               	.L81:
 1270 03a0 3299      		sbic 0x6,2
 1271 03a2 00C0      		rjmp .L186
 1272 03a4 1111      		cpse r17,__zero_reg__
 1273 03a6 00C0      		rjmp .L305
 1274 03a8 68EC      		ldi r22,lo8(-56)
 1275 03aa 662E      		mov r6,r22
 1276 03ac 712C      		mov r7,__zero_reg__
 1277               	.L85:
 1278 03ae 3299      		sbic 0x6,2
 1279 03b0 00C0      		rjmp .L88
 1280 03b2 E1E0      		ldi r30,1
 1281 03b4 6E1A      		sub r6,r30
 1282 03b6 7108      		sbc r7,__zero_reg__
 1283 03b8 0E94 0000 		call yackbeat
 1284 03bc 6114      		cp r6,__zero_reg__
 1285 03be 7104      		cpc r7,__zero_reg__
 1286 03c0 01F4      		brne .L85
 1287               	.L88:
 1288 03c2 329B      		sbis 0x6,2
 1289 03c4 00C0      		rjmp .L88
 1290 03c6 6114      		cp r6,__zero_reg__
 1291 03c8 7104      		cpc r7,__zero_reg__
 1292 03ca 01F4      		brne .+2
 1293 03cc 00C0      		rjmp .L187
 1294 03ce F4EB      		ldi r31,-76
 1295 03d0 6F16      		cp r6,r31
 1296 03d2 7104      		cpc r7,__zero_reg__
 1297 03d4 00F0      		brlo .L89
 1298 03d6 00C0      		rjmp .L296
 1299               	.L305:
 1300 03d8 4394      		inc r4
 1301 03da 25E0      		ldi r18,lo8(5)
 1302 03dc 4212      		cpse r4,r18
 1303 03de 00C0      		rjmp .L296
 1304 03e0 00C0      		rjmp .L90
 1305               	.L89:
 1306 03e2 1F5F      		subi r17,lo8(-(1))
 1307               	.L290:
 1308 03e4 312C      		mov r3,__zero_reg__
 1309 03e6 5524      		clr r5
 1310 03e8 5394      		inc r5
 1311               	.L92:
 1312 03ea 8091 0000 		lds r24,rotEncChange
 1313 03ee 9091 0000 		lds r25,rotEncChange+1
 1314 03f2 412F      		mov r20,r17
 1315 03f4 50E0      		ldi r21,0
 1316 03f6 0197      		sbiw r24,1
 1317 03f8 01F0      		breq .+2
 1318 03fa 00C0      		rjmp .L93
 1319 03fc 8091 0000 		lds r24,storedRotA
 1320 0400 9091 0000 		lds r25,storedRotA+1
 1321 0404 E091 0000 		lds r30,storedRotB
 1322 0408 F091 0000 		lds r31,storedRotB+1
 1323 040c 8E17      		cp r24,r30
 1324 040e 9F07      		cpc r25,r31
 1325 0410 01F4      		brne .L188
 1326 0412 8091 0000 		lds r24,storedRotA
 1327 0416 9091 0000 		lds r25,storedRotA+1
 1328 041a E091 0000 		lds r30,storedRotB
 1329 041e F091 0000 		lds r31,storedRotB+1
 1330 0422 7724      		clr r7
 1331 0424 7394      		inc r7
 1332 0426 8E17      		cp r24,r30
 1333 0428 9F07      		cpc r25,r31
 1334 042a 01F0      		breq .L95
 1335 042c 712C      		mov r7,__zero_reg__
 1336               	.L95:
 1337 042e 612C      		mov r6,__zero_reg__
 1338 0430 00C0      		rjmp .L94
 1339               	.L188:
 1340 0432 712C      		mov r7,__zero_reg__
 1341 0434 6624      		clr r6
 1342 0436 6394      		inc r6
 1343               	.L94:
 1344 0438 1092 0000 		sts rotEncChange+1,__zero_reg__
 1345 043c 1092 0000 		sts rotEncChange,__zero_reg__
 1346 0440 FA01      		movw r30,r20
 1347 0442 3197      		sbiw r30,1
 1348 0444 EB30      		cpi r30,11
 1349 0446 F105      		cpc r31,__zero_reg__
 1350 0448 00F0      		brlo .+2
 1351 044a 00C0      		rjmp .L293
 1352 044c E050      		subi r30,lo8(-(gs(.L98)))
 1353 044e F040      		sbci r31,hi8(-(gs(.L98)))
 1354 0450 0C94 0000 		jmp __tablejump2__
 1355               		.section	.progmem.gcc_sw_table,"a",@progbits
 1356               		.p2align	1
 1357               	.L98:
 1358 0000 0000      		.word gs(.L97)
 1359 0002 0000      		.word gs(.L99)
 1360 0004 0000      		.word gs(.L100)
 1361 0006 0000      		.word gs(.L101)
 1362 0008 0000      		.word gs(.L102)
 1363 000a 0000      		.word gs(.L103)
 1364 000c 0000      		.word gs(.L104)
 1365 000e 0000      		.word gs(.L105)
 1366 0010 0000      		.word gs(.L106)
 1367 0012 0000      		.word gs(.L107)
 1368 0014 0000      		.word gs(.L108)
 1369               		.section	.text.startup
 1370               	.L97:
 1371 0454 31E0      		ldi r19,lo8(1)
 1372 0456 6312      		cpse r6,r19
 1373 0458 00C0      		rjmp .L109
 1374 045a 89AD      		ldd r24,Y+57
 1375 045c 9AAD      		ldd r25,Y+58
 1376 045e ABAD      		ldd r26,Y+59
 1377 0460 BCAD      		ldd r27,Y+60
 1378 0462 BC01      		movw r22,r24
 1379 0464 CD01      		movw r24,r26
 1380 0466 685D      		subi r22,-40
 1381 0468 7F4F      		sbci r23,-1
 1382 046a 8F4F      		sbci r24,-1
 1383 046c 9F4F      		sbci r25,-1
 1384 046e 00C0      		rjmp .L303
 1385               	.L109:
 1386 0470 81E0      		ldi r24,lo8(1)
 1387 0472 7812      		cpse r7,r24
 1388 0474 00C0      		rjmp .L111
 1389 0476 89AD      		ldd r24,Y+57
 1390 0478 9AAD      		ldd r25,Y+58
 1391 047a ABAD      		ldd r26,Y+59
 1392 047c BCAD      		ldd r27,Y+60
 1393 047e BC01      		movw r22,r24
 1394 0480 CD01      		movw r24,r26
 1395 0482 6852      		subi r22,40
 1396 0484 7109      		sbc r23,__zero_reg__
 1397 0486 8109      		sbc r24,__zero_reg__
 1398 0488 9109      		sbc r25,__zero_reg__
 1399               	.L303:
 1400 048a 69AF      		std Y+57,r22
 1401 048c 7AAF      		std Y+58,r23
 1402 048e 8BAF      		std Y+59,r24
 1403 0490 9CAF      		std Y+60,r25
 1404 0492 0E94 0000 		call si5351aSetFrequency
 1405 0496 00C0      		rjmp .L301
 1406               	.L111:
 1407 0498 91E0      		ldi r25,lo8(1)
 1408 049a 5912      		cpse r5,r25
 1409 049c 00C0      		rjmp .L190
 1410               	.L301:
 1411 049e 0E94 0000 		call clearMainArea
 1412 04a2 29AD      		ldd r18,Y+57
 1413 04a4 3AAD      		ldd r19,Y+58
 1414 04a6 4BAD      		ldd r20,Y+59
 1415 04a8 5CAD      		ldd r21,Y+60
 1416 04aa 6DA9      		ldd r22,Y+53
 1417 04ac 7EA9      		ldd r23,Y+54
 1418 04ae 8FA9      		ldd r24,Y+55
 1419 04b0 98AD      		ldd r25,Y+56
 1420 04b2 0E94 0000 		call displayFreqSmall
 1421 04b6 00C0      		rjmp .L211
 1422               	.L99:
 1423 04b8 E1E0      		ldi r30,lo8(1)
 1424 04ba 6E12      		cpse r6,r30
 1425 04bc 00C0      		rjmp .L115
 1426 04be 2796      		adiw r28,69-62
 1427 04c0 8EAD      		ldd r24,Y+62
 1428 04c2 9FAD      		ldd r25,Y+63
 1429 04c4 2797      		sbiw r28,69-62
 1430 04c6 0997      		sbiw r24,9
 1431 04c8 01F4      		brne .+2
 1432 04ca 00C0      		rjmp .L116
 1433 04cc 5E9A      		sbi 0xb,6
 1434 04ce 0E94 0000 		call volumeUPone
 1435 04d2 5E98      		cbi 0xb,6
 1436 04d4 2796      		adiw r28,69-62
 1437 04d6 8EAD      		ldd r24,Y+62
 1438 04d8 9FAD      		ldd r25,Y+63
 1439 04da 2797      		sbiw r28,69-62
 1440 04dc 0196      		adiw r24,1
 1441 04de 2796      		adiw r28,69-62
 1442 04e0 9FAF      		std Y+63,r25
 1443 04e2 8EAF      		std Y+62,r24
 1444 04e4 2797      		sbiw r28,69-62
 1445 04e6 0E94 0000 		call clearMainArea
 1446 04ea 2796      		adiw r28,69-62
 1447 04ec 8EAD      		ldd r24,Y+62
 1448 04ee 9FAD      		ldd r25,Y+63
 1449 04f0 2797      		sbiw r28,69-62
 1450 04f2 00C0      		rjmp .L302
 1451               	.L115:
 1452 04f4 F1E0      		ldi r31,lo8(1)
 1453 04f6 7F12      		cpse r7,r31
 1454 04f8 00C0      		rjmp .L117
 1455 04fa 2796      		adiw r28,69-62
 1456 04fc 8EAD      		ldd r24,Y+62
 1457 04fe 9FAD      		ldd r25,Y+63
 1458 0500 2797      		sbiw r28,69-62
 1459 0502 892B      		or r24,r25
 1460 0504 01F4      		brne .+2
 1461 0506 00C0      		rjmp .L118
 1462               	.L181:
 1463 0508 5E9A      		sbi 0xb,6
 1464 050a 0E94 0000 		call volumeDOWNone
 1465 050e 5E98      		cbi 0xb,6
 1466 0510 2796      		adiw r28,69-62
 1467 0512 8EAD      		ldd r24,Y+62
 1468 0514 9FAD      		ldd r25,Y+63
 1469 0516 2797      		sbiw r28,69-62
 1470 0518 0197      		sbiw r24,1
 1471 051a 2796      		adiw r28,69-62
 1472 051c 9FAF      		std Y+63,r25
 1473 051e 8EAF      		std Y+62,r24
 1474 0520 2797      		sbiw r28,69-62
 1475               	.L184:
 1476 0522 0E94 0000 		call clearMainArea
 1477 0526 2796      		adiw r28,69-62
 1478 0528 8EAD      		ldd r24,Y+62
 1479 052a 9FAD      		ldd r25,Y+63
 1480 052c 2797      		sbiw r28,69-62
 1481 052e 0E94 0000 		call drawIntNumber
 1482 0532 12E0      		ldi r17,lo8(2)
 1483 0534 00C0      		rjmp .L293
 1484               	.L304:
 1485 0536 7212      		cpse r7,r18
 1486 0538 00C0      		rjmp .L121
 1487 053a 00C0      		rjmp .L119
 1488               	.L125:
 1489 053c 8436      		cpi r24,100
 1490 053e 9105      		cpc r25,__zero_reg__
 1491 0540 01F0      		breq .L192
 1492 0542 8A3F      		cpi r24,-6
 1493 0544 9105      		cpc r25,__zero_reg__
 1494 0546 01F0      		breq .L133
 1495 0548 00C0      		rjmp .L126
 1496               	.L122:
 1497 054a 8233      		cpi r24,50
 1498 054c 9105      		cpc r25,__zero_reg__
 1499 054e 01F0      		breq .L191
 1500 0550 00F4      		brsh .L132
 1501 0552 8130      		cpi r24,1
 1502 0554 9105      		cpc r25,__zero_reg__
 1503 0556 01F0      		breq .L192
 1504 0558 8A30      		cpi r24,10
 1505 055a 9105      		cpc r25,__zero_reg__
 1506 055c 01F0      		breq .L133
 1507 055e 00C0      		rjmp .L126
 1508               	.L132:
 1509 0560 8436      		cpi r24,100
 1510 0562 9105      		cpc r25,__zero_reg__
 1511 0564 01F0      		breq .L134
 1512 0566 8A3F      		cpi r24,-6
 1513 0568 9105      		cpc r25,__zero_reg__
 1514 056a 01F0      		breq .L135
 1515 056c 00C0      		rjmp .L126
 1516               	.L133:
 1517 056e 81E0      		ldi r24,lo8(1)
 1518 0570 90E0      		ldi r25,0
 1519 0572 00C0      		rjmp .L126
 1520               	.L134:
 1521 0574 82E3      		ldi r24,lo8(50)
 1522 0576 90E0      		ldi r25,0
 1523 0578 00C0      		rjmp .L126
 1524               	.L135:
 1525 057a 84E6      		ldi r24,lo8(100)
 1526 057c 90E0      		ldi r25,0
 1527 057e 00C0      		rjmp .L126
 1528               	.L191:
 1529 0580 8AE0      		ldi r24,lo8(10)
 1530 0582 90E0      		ldi r25,0
 1531 0584 00C0      		rjmp .L126
 1532               	.L192:
 1533 0586 8AEF      		ldi r24,lo8(-6)
 1534 0588 90E0      		ldi r25,0
 1535 058a 00C0      		rjmp .L126
 1536               	.L121:
 1537 058c 81E0      		ldi r24,lo8(1)
 1538 058e 3812      		cpse r3,r24
 1539 0590 00C0      		rjmp .L136
 1540 0592 0E94 0000 		call yackinhibit
 1541 0596 0E94 0000 		call clearMainArea
 1542 059a 8BA9      		ldd r24,Y+51
 1543 059c 9CA9      		ldd r25,Y+52
 1544 059e 9695      		lsr r25
 1545 05a0 8795      		ror r24
 1546 05a2 9695      		lsr r25
 1547 05a4 8795      		ror r24
 1548 05a6 0E94 0000 		call drawIntNumber
 1549 05aa 00C0      		rjmp .L136
 1550               	.L101:
 1551 05ac 91E0      		ldi r25,lo8(1)
 1552 05ae 6916      		cp r6,r25
 1553 05b0 01F0      		breq .L137
 1554 05b2 7912      		cpse r7,r25
 1555 05b4 00C0      		rjmp .L139
 1556               	.L137:
 1557 05b6 0E94 0000 		call clearMainArea
 1558 05ba 80E0      		ldi r24,0
 1559 05bc 90E0      		ldi r25,0
 1560 05be 0E94 0000 		call drawMainArea
 1561 05c2 2898      		cbi 0x5,0
 1562 05c4 2998      		cbi 0x5,1
 1563 05c6 0E94 0000 		call yackbeat
 1564 05ca 2898      		cbi 0x5,0
 1565 05cc 299A      		sbi 0x5,1
 1566 05ce 0E94 0000 		call yackbeat
 1567 05d2 2898      		cbi 0x5,0
 1568 05d4 2998      		cbi 0x5,1
 1569 05d6 0E94 0000 		call yacktune
 1570 05da 289A      		sbi 0x5,0
 1571 05dc 2998      		cbi 0x5,1
 1572 05de 0E94 0000 		call yackbeat
 1573 05e2 2898      		cbi 0x5,0
 1574 05e4 2998      		cbi 0x5,1
 1575 05e6 80E0      		ldi r24,0
 1576 05e8 0E94 0000 		call yackinhibit
 1577 05ec 0E94 0000 		call ssd1306ClearScreen
 1578 05f0 6DA9      		ldd r22,Y+53
 1579 05f2 7EA9      		ldd r23,Y+54
 1580 05f4 8FA9      		ldd r24,Y+55
 1581 05f6 98AD      		ldd r25,Y+56
 1582 05f8 4091 0000 		lds r20,battery_state
 1583 05fc 0E94 0000 		call displayFreq
 1584 0600 0E94 0000 		call ssd1306Refresh
 1585 0604 85E0      		ldi r24,lo8(5)
 1586 0606 0E94 0000 		call yackdelay
 1587 060a 00C0      		rjmp .L300
 1588               	.L139:
 1589 060c E1E0      		ldi r30,lo8(1)
 1590 060e 5E12      		cpse r5,r30
 1591 0610 00C0      		rjmp .L193
 1592               	.L145:
 1593 0612 0E94 0000 		call clearMainArea
 1594 0616 00C0      		rjmp .L298
 1595               	.L102:
 1596 0618 F1E0      		ldi r31,lo8(1)
 1597 061a 6F16      		cp r6,r31
 1598 061c 01F0      		breq .L140
 1599 061e 21E0      		ldi r18,lo8(1)
 1600 0620 7216      		cp r7,r18
 1601 0622 01F0      		breq .L140
 1602               	.L285:
 1603 0624 8091 0000 		lds r24,memoryReplayNow
 1604 0628 8130      		cpi r24,lo8(1)
 1605 062a 01F0      		breq .+2
 1606 062c 00C0      		rjmp .L142
 1607               	.L140:
 1608 062e 0E94 0000 		call clearMainArea
 1609 0632 1092 0000 		sts memoryReplayNow,__zero_reg__
 1610 0636 81E0      		ldi r24,lo8(1)
 1611 0638 90E0      		ldi r25,0
 1612 063a 0E94 0000 		call drawMainArea
 1613 063e 85E0      		ldi r24,lo8(5)
 1614 0640 0E94 0000 		call displayChangeStateIcon
 1615 0644 0E94 0000 		call ssd1306Refresh
 1616 0648 31E0      		ldi r19,lo8(1)
 1617 064a 6312      		cpse r6,r19
 1618 064c 00C0      		rjmp .L143
 1619 064e 60E0      		ldi r22,lo8(.LC1)
 1620 0650 70E0      		ldi r23,hi8(.LC1)
 1621 0652 00C0      		rjmp .L291
 1622               	.L143:
 1623 0654 81E0      		ldi r24,lo8(1)
 1624 0656 7812      		cpse r7,r24
 1625 0658 00C0      		rjmp .L144
 1626 065a 60E0      		ldi r22,lo8(.LC2)
 1627 065c 70E0      		ldi r23,hi8(.LC2)
 1628               	.L291:
 1629 065e 80E0      		ldi r24,lo8(cqStr)
 1630 0660 90E0      		ldi r25,hi8(cqStr)
 1631 0662 0E94 0000 		call strcpy
 1632               	.L144:
 1633 0666 80E0      		ldi r24,0
 1634 0668 0E94 0000 		call yackinhibit
 1635 066c 0E94 0000 		call transition_to_tx
 1636 0670 2BE4      		ldi r18,lo8(75)
 1637 0672 30E0      		ldi r19,0
 1638 0674 F601      		movw r30,r12
 1639 0676 3183      		std Z+1,r19
 1640 0678 2083      		st Z,r18
 1641 067a DF92      		push r13
 1642 067c CF92      		push r12
 1643 067e 80E0      		ldi r24,lo8(callStr)
 1644 0680 90E0      		ldi r25,hi8(callStr)
 1645 0682 9F93      		push r25
 1646 0684 8F93      		push r24
 1647 0686 9F93      		push r25
 1648 0688 8F93      		push r24
 1649 068a 80E0      		ldi r24,lo8(cqStr)
 1650 068c 90E0      		ldi r25,hi8(cqStr)
 1651 068e 9F93      		push r25
 1652 0690 8F93      		push r24
 1653 0692 20E0      		ldi r18,lo8(.LC3)
 1654 0694 30E0      		ldi r19,hi8(.LC3)
 1655 0696 3F93      		push r19
 1656 0698 2F93      		push r18
 1657 069a BF92      		push r11
 1658 069c AF92      		push r10
 1659 069e 0E94 0000 		call sprintf
 1660 06a2 C501      		movw r24,r10
 1661 06a4 0E94 0000 		call yackstring
 1662 06a8 0E94 0000 		call transistion_to_rx
 1663 06ac 0E94 0000 		call ssd1306ClearScreen
 1664 06b0 6DA9      		ldd r22,Y+53
 1665 06b2 7EA9      		ldd r23,Y+54
 1666 06b4 8FA9      		ldd r24,Y+55
 1667 06b6 98AD      		ldd r25,Y+56
 1668 06b8 4091 0000 		lds r20,battery_state
 1669 06bc 0E94 0000 		call displayFreq
 1670 06c0 0E94 0000 		call ssd1306Refresh
 1671 06c4 2996      		adiw r28,72-63
 1672 06c6 8FAD      		ldd r24,Y+63
 1673 06c8 2997      		sbiw r28,72-63
 1674 06ca 0FB6      		in __tmp_reg__,__SREG__
 1675 06cc F894      		cli
 1676 06ce DEBF      		out __SP_H__,r29
 1677 06d0 0FBE      		out __SREG__,__tmp_reg__
 1678 06d2 CDBF      		out __SP_L__,r28
 1679 06d4 8823      		tst r24
 1680 06d6 01F0      		breq .L300
 1681 06d8 91E0      		ldi r25,lo8(1)
 1682 06da 9093 0000 		sts enableMemoryReplay,r25
 1683 06de F8EC      		ldi r31,lo8(-56)
 1684 06e0 8F9F      		mul r24,r31
 1685 06e2 C001      		movw r24,r0
 1686 06e4 1124      		clr __zero_reg__
 1687 06e6 9093 0000 		sts countDownMemoryTimer+1,r25
 1688 06ea 8093 0000 		sts countDownMemoryTimer,r24
 1689               	.L300:
 1690 06ee 10E0      		ldi r17,0
 1691 06f0 00C0      		rjmp .L293
 1692               	.L142:
 1693 06f2 21E0      		ldi r18,lo8(1)
 1694 06f4 5216      		cp r5,r18
 1695 06f6 01F4      		brne .+2
 1696 06f8 00C0      		rjmp .L145
 1697 06fa 15E0      		ldi r17,lo8(5)
 1698 06fc 00C0      		rjmp .L113
 1699               	.L103:
 1700 06fe 31E0      		ldi r19,lo8(1)
 1701 0700 6316      		cp r6,r19
 1702 0702 01F0      		breq .L146
 1703 0704 7312      		cpse r7,r19
 1704 0706 00C0      		rjmp .L147
 1705               	.L146:
 1706 0708 0E94 0000 		call clearMainArea
 1707 070c 82E0      		ldi r24,lo8(2)
 1708 070e 90E0      		ldi r25,0
 1709 0710 0E94 0000 		call drawMainArea
 1710 0714 86E0      		ldi r24,lo8(6)
 1711 0716 0E94 0000 		call displayChangeStateIcon
 1712 071a 0E94 0000 		call ssd1306Refresh
 1713 071e 61E0      		ldi r22,lo8(1)
 1714 0720 81E0      		ldi r24,lo8(1)
 1715 0722 0E94 0000 		call yackmessage
 1716 0726 0E94 0000 		call ssd1306ClearScreen
 1717 072a 6DA9      		ldd r22,Y+53
 1718 072c 7EA9      		ldd r23,Y+54
 1719 072e 8FA9      		ldd r24,Y+55
 1720 0730 98AD      		ldd r25,Y+56
 1721 0732 4091 0000 		lds r20,battery_state
 1722 0736 0E94 0000 		call displayFreq
 1723 073a 0E94 0000 		call ssd1306Refresh
 1724 073e 10E0      		ldi r17,0
 1725 0740 00C0      		rjmp .L148
 1726               	.L147:
 1727 0742 81E0      		ldi r24,lo8(1)
 1728 0744 5812      		cpse r5,r24
 1729 0746 00C0      		rjmp .L195
 1730               	.L298:
 1731 0748 80E0      		ldi r24,0
 1732 074a 90E0      		ldi r25,0
 1733 074c 0E94 0000 		call drawMainArea
 1734 0750 00C0      		rjmp .L211
 1735               	.L104:
 1736 0752 91E0      		ldi r25,lo8(1)
 1737 0754 6912      		cpse r6,r25
 1738 0756 00C0      		rjmp .L149
 1739 0758 6091 0000 		lds r22,wpm
 1740 075c 6233      		cpi r22,lo8(50)
 1741 075e 00F4      		brsh .L149
 1742 0760 6F5F      		subi r22,lo8(-(1))
 1743 0762 6093 0000 		sts wpm,r22
 1744 0766 70E0      		ldi r23,0
 1745 0768 C401      		movw r24,r8
 1746 076a 0E94 0000 		call __divmodhi4
 1747 076e 7093 0000 		sts wpmcnt+1,r23
 1748 0772 6093 0000 		sts wpmcnt,r22
 1749 0776 0E94 0000 		call clearMainArea
 1750 077a 8091 0000 		lds r24,wpm
 1751 077e 00C0      		rjmp .L299
 1752               	.L149:
 1753 0780 E1E0      		ldi r30,lo8(1)
 1754 0782 7E12      		cpse r7,r30
 1755 0784 00C0      		rjmp .L150
 1756 0786 6091 0000 		lds r22,wpm
 1757 078a 6B30      		cpi r22,lo8(11)
 1758 078c 00F0      		brlo .L150
 1759 078e 6150      		subi r22,lo8(-(-1))
 1760 0790 6093 0000 		sts wpm,r22
 1761 0794 70E0      		ldi r23,0
 1762 0796 C401      		movw r24,r8
 1763 0798 0E94 0000 		call __divmodhi4
 1764 079c 7093 0000 		sts wpmcnt+1,r23
 1765 07a0 6093 0000 		sts wpmcnt,r22
 1766 07a4 0E94 0000 		call clearMainArea
 1767 07a8 8091 0000 		lds r24,wpm
 1768 07ac 90E0      		ldi r25,0
 1769 07ae 0E94 0000 		call drawIntNumber
 1770 07b2 17E0      		ldi r17,lo8(7)
 1771 07b4 00C0      		rjmp .L151
 1772               	.L207:
 1773 07b6 712C      		mov r7,__zero_reg__
 1774 07b8 612C      		mov r6,__zero_reg__
 1775               	.L150:
 1776 07ba F1E0      		ldi r31,lo8(1)
 1777 07bc 5F12      		cpse r5,r31
 1778 07be 00C0      		rjmp .L196
 1779 07c0 0E94 0000 		call clearMainArea
 1780 07c4 8091 0000 		lds r24,wpm
 1781 07c8 90E0      		ldi r25,0
 1782 07ca 0E94 0000 		call drawIntNumber
 1783 07ce 00C0      		rjmp .L196
 1784               	.L105:
 1785 07d0 21E0      		ldi r18,lo8(1)
 1786 07d2 6216      		cp r6,r18
 1787 07d4 01F0      		breq .L152
 1788 07d6 7212      		cpse r7,r18
 1789 07d8 00C0      		rjmp .L154
 1790               	.L152:
 1791 07da 2B96      		adiw r28,74-63
 1792 07dc 4FAD      		ldd r20,Y+63
 1793 07de 2B97      		sbiw r28,74-63
 1794 07e0 672D      		mov r22,r7
 1795 07e2 862D      		mov r24,r6
 1796 07e4 0E94 0000 		call serviceKeyerMode
 1797 07e8 2B96      		adiw r28,74-63
 1798 07ea 8FAF      		std Y+63,r24
 1799 07ec 2B97      		sbiw r28,74-63
 1800 07ee 0E94 0000 		call clearMainArea
 1801 07f2 2B96      		adiw r28,74-63
 1802 07f4 8FAD      		ldd r24,Y+63
 1803 07f6 2B97      		sbiw r28,74-63
 1804 07f8 90E0      		ldi r25,0
 1805 07fa 0E94 0000 		call drawMainAreaSmall
 1806 07fe 18E0      		ldi r17,lo8(8)
 1807 0800 00C0      		rjmp .L294
 1808               	.L154:
 1809 0802 31E0      		ldi r19,lo8(1)
 1810 0804 5312      		cpse r5,r19
 1811 0806 00C0      		rjmp .L197
 1812 0808 0E94 0000 		call clearMainArea
 1813 080c 2B96      		adiw r28,74-63
 1814 080e 8FAD      		ldd r24,Y+63
 1815 0810 2B97      		sbiw r28,74-63
 1816 0812 90E0      		ldi r25,0
 1817 0814 00C0      		rjmp .L297
 1818               	.L106:
 1819 0816 81E0      		ldi r24,lo8(1)
 1820 0818 6816      		cp r6,r24
 1821 081a 01F0      		breq .L155
 1822 081c 7812      		cpse r7,r24
 1823 081e 00C0      		rjmp .L157
 1824               	.L155:
 1825 0820 2896      		adiw r28,71-63
 1826 0822 8FAD      		ldd r24,Y+63
 1827 0824 2897      		sbiw r28,71-63
 1828 0826 8130      		cpi r24,lo8(1)
 1829 0828 01F4      		brne .L158
 1830 082a 5E9A      		sbi 0xb,6
 1831 082c 18E0      		ldi r17,lo8(8)
 1832               	.L159:
 1833 082e 0E94 0000 		call filterDOWNone
 1834 0832 1150      		subi r17,lo8(-(-1))
 1835 0834 01F4      		brne .L159
 1836 0836 5E98      		cbi 0xb,6
 1837 0838 2896      		adiw r28,71-63
 1838 083a 1FAE      		std Y+63,__zero_reg__
 1839 083c 2897      		sbiw r28,71-63
 1840 083e 00C0      		rjmp .L160
 1841               	.L158:
 1842 0840 8111      		cpse r24,__zero_reg__
 1843 0842 00C0      		rjmp .L160
 1844 0844 5E9A      		sbi 0xb,6
 1845 0846 18E0      		ldi r17,lo8(8)
 1846               	.L161:
 1847 0848 0E94 0000 		call filterUPone
 1848 084c 1150      		subi r17,lo8(-(-1))
 1849 084e 01F4      		brne .L161
 1850 0850 5E98      		cbi 0xb,6
 1851 0852 81E0      		ldi r24,lo8(1)
 1852 0854 2896      		adiw r28,71-63
 1853 0856 8FAF      		std Y+63,r24
 1854 0858 2897      		sbiw r28,71-63
 1855               	.L160:
 1856 085a 0E94 0000 		call clearMainArea
 1857 085e 2896      		adiw r28,71-63
 1858 0860 8FAD      		ldd r24,Y+63
 1859 0862 2897      		sbiw r28,71-63
 1860 0864 90E0      		ldi r25,0
 1861 0866 0396      		adiw r24,3
 1862 0868 0E94 0000 		call drawMainAreaSmall
 1863 086c 19E0      		ldi r17,lo8(9)
 1864 086e 00C0      		rjmp .L294
 1865               	.L157:
 1866 0870 91E0      		ldi r25,lo8(1)
 1867 0872 5912      		cpse r5,r25
 1868 0874 00C0      		rjmp .L198
 1869 0876 0E94 0000 		call clearMainArea
 1870 087a 2896      		adiw r28,71-63
 1871 087c 8FAD      		ldd r24,Y+63
 1872 087e 2897      		sbiw r28,71-63
 1873 0880 90E0      		ldi r25,0
 1874 0882 0396      		adiw r24,3
 1875               	.L297:
 1876 0884 0E94 0000 		call drawMainAreaSmall
 1877 0888 00C0      		rjmp .L211
 1878               	.L107:
 1879 088a E1E0      		ldi r30,lo8(1)
 1880 088c 6E12      		cpse r6,r30
 1881 088e 00C0      		rjmp .L162
 1882 0890 2996      		adiw r28,72-63
 1883 0892 8FAD      		ldd r24,Y+63
 1884 0894 2997      		sbiw r28,72-63
 1885 0896 8A30      		cpi r24,lo8(10)
 1886 0898 00F4      		brsh .L162
 1887 089a 8F5F      		subi r24,lo8(-(1))
 1888 089c 2996      		adiw r28,72-63
 1889 089e 8FAF      		std Y+63,r24
 1890 08a0 2997      		sbiw r28,72-63
 1891 08a2 0E94 0000 		call clearMainArea
 1892 08a6 2996      		adiw r28,72-63
 1893 08a8 8FAD      		ldd r24,Y+63
 1894 08aa 2997      		sbiw r28,72-63
 1895               	.L299:
 1896 08ac 90E0      		ldi r25,0
 1897 08ae 0E94 0000 		call drawIntNumber
 1898 08b2 00C0      		rjmp .L151
 1899               	.L162:
 1900 08b4 F1E0      		ldi r31,lo8(1)
 1901 08b6 7F12      		cpse r7,r31
 1902 08b8 00C0      		rjmp .L163
 1903 08ba 2996      		adiw r28,72-63
 1904 08bc 8FAD      		ldd r24,Y+63
 1905 08be 2997      		sbiw r28,72-63
 1906 08c0 8823      		tst r24
 1907 08c2 01F0      		breq .L163
 1908 08c4 8150      		subi r24,lo8(-(-1))
 1909 08c6 2996      		adiw r28,72-63
 1910 08c8 8FAF      		std Y+63,r24
 1911 08ca 2997      		sbiw r28,72-63
 1912 08cc 0E94 0000 		call clearMainArea
 1913 08d0 2996      		adiw r28,72-63
 1914 08d2 8FAD      		ldd r24,Y+63
 1915 08d4 2997      		sbiw r28,72-63
 1916 08d6 90E0      		ldi r25,0
 1917 08d8 0E94 0000 		call drawIntNumber
 1918 08dc 1AE0      		ldi r17,lo8(10)
 1919 08de 00C0      		rjmp .L151
 1920               	.L210:
 1921 08e0 712C      		mov r7,__zero_reg__
 1922 08e2 612C      		mov r6,__zero_reg__
 1923               	.L163:
 1924 08e4 21E0      		ldi r18,lo8(1)
 1925 08e6 5212      		cpse r5,r18
 1926 08e8 00C0      		rjmp .L199
 1927 08ea 0E94 0000 		call clearMainArea
 1928 08ee 2996      		adiw r28,72-63
 1929 08f0 8FAD      		ldd r24,Y+63
 1930 08f2 2997      		sbiw r28,72-63
 1931 08f4 90E0      		ldi r25,0
 1932 08f6 0E94 0000 		call drawIntNumber
 1933 08fa 00C0      		rjmp .L199
 1934               	.L108:
 1935 08fc 31E0      		ldi r19,lo8(1)
 1936 08fe 6316      		cp r6,r19
 1937 0900 01F0      		breq .L164
 1938 0902 7312      		cpse r7,r19
 1939 0904 00C0      		rjmp .L166
 1940               	.L164:
 1941 0906 2A96      		adiw r28,73-63
 1942 0908 8FAD      		ldd r24,Y+63
 1943 090a 2A97      		sbiw r28,73-63
 1944 090c 8A30      		cpi r24,lo8(10)
 1945 090e 01F4      		brne .L167
 1946 0910 8EE0      		ldi r24,lo8(14)
 1947 0912 2A96      		adiw r28,73-63
 1948 0914 8FAF      		std Y+63,r24
 1949 0916 2A97      		sbiw r28,73-63
 1950 0918 BE01      		movw r22,r28
 1951 091a 6D5C      		subi r22,-51
 1952 091c 7F4F      		sbci r23,-1
 1953 091e 00C0      		rjmp .L292
 1954               	.L167:
 1955 0920 8E30      		cpi r24,lo8(14)
 1956 0922 01F4      		brne .L168
 1957 0924 9AE0      		ldi r25,lo8(10)
 1958 0926 2A96      		adiw r28,73-63
 1959 0928 9FAF      		std Y+63,r25
 1960 092a 2A97      		sbiw r28,73-63
 1961 092c BE01      		movw r22,r28
 1962 092e 6D5C      		subi r22,-51
 1963 0930 7F4F      		sbci r23,-1
 1964 0932 8AE0      		ldi r24,lo8(10)
 1965               	.L292:
 1966 0934 0E94 0000 		call ChangeBand
 1967               	.L168:
 1968 0938 0E94 0000 		call clearMainArea
 1969 093c 2A96      		adiw r28,73-63
 1970 093e 8FAD      		ldd r24,Y+63
 1971 0940 2A97      		sbiw r28,73-63
 1972 0942 90E0      		ldi r25,0
 1973 0944 0E94 0000 		call drawIntNumber
 1974 0948 1BE0      		ldi r17,lo8(11)
 1975 094a 00C0      		rjmp .L294
 1976               	.L166:
 1977 094c E1E0      		ldi r30,lo8(1)
 1978 094e 5E12      		cpse r5,r30
 1979 0950 00C0      		rjmp .L200
 1980 0952 0E94 0000 		call clearMainArea
 1981 0956 2A96      		adiw r28,73-63
 1982 0958 8FAD      		ldd r24,Y+63
 1983 095a 2A97      		sbiw r28,73-63
 1984 095c 90E0      		ldi r25,0
 1985               	.L302:
 1986 095e 0E94 0000 		call drawIntNumber
 1987 0962 00C0      		rjmp .L211
 1988               	.L196:
 1989 0964 17E0      		ldi r17,lo8(7)
 1990 0966 00C0      		rjmp .L293
 1991               	.L199:
 1992 0968 1AE0      		ldi r17,lo8(10)
 1993               	.L293:
 1994 096a 00E0      		ldi r16,0
 1995 096c 00C0      		rjmp .L96
 1996               	.L118:
 1997 096e F1E0      		ldi r31,lo8(1)
 1998 0970 5F16      		cp r5,r31
 1999 0972 01F4      		brne .+2
 2000 0974 00C0      		rjmp .L184
 2001 0976 12E0      		ldi r17,lo8(2)
 2002               	.L211:
 2003 0978 00E0      		ldi r16,0
 2004               	.L112:
 2005 097a 812F      		mov r24,r17
 2006 097c 0E94 0000 		call displayChangeStateIcon
 2007 0980 0E94 0000 		call ssd1306Refresh
 2008 0984 00C0      		rjmp .L170
 2009               	.L148:
 2010 0986 81E0      		ldi r24,lo8(1)
 2011 0988 0E94 0000 		call yackinhibit
 2012 098c 80E0      		ldi r24,lo8(.LC4)
 2013 098e 90E0      		ldi r25,hi8(.LC4)
 2014 0990 0E94 0000 		call yackstring
 2015 0994 80E0      		ldi r24,0
 2016 0996 0E94 0000 		call yackinhibit
 2017 099a 65EA      		ldi r22,lo8(-91)
 2018 099c 80E0      		ldi r24,lo8(magic)
 2019 099e 90E0      		ldi r25,hi8(magic)
 2020 09a0 0E94 0000 		call eeprom_update_byte
 2021 09a4 4FE0      		ldi r20,lo8(15)
 2022 09a6 50E0      		ldi r21,0
 2023 09a8 60E0      		ldi r22,lo8(callStr)
 2024 09aa 70E0      		ldi r23,hi8(callStr)
 2025 09ac CE01      		movw r24,r28
 2026 09ae 855B      		subi r24,-75
 2027 09b0 9F4F      		sbci r25,-1
 2028 09b2 0E94 0000 		call strncpy
 2029 09b6 2B96      		adiw r28,74-63
 2030 09b8 8FAD      		ldd r24,Y+63
 2031 09ba 2B97      		sbiw r28,74-63
 2032 09bc 6B96      		adiw r28,90-63
 2033 09be 8FAF      		std Y+63,r24
 2034 09c0 6B97      		sbiw r28,90-63
 2035 09c2 8091 0000 		lds r24,wpm
 2036 09c6 6C96      		adiw r28,91-63
 2037 09c8 8FAF      		std Y+63,r24
 2038 09ca 6C97      		sbiw r28,91-63
 2039 09cc 2896      		adiw r28,71-63
 2040 09ce 8FAD      		ldd r24,Y+63
 2041 09d0 2897      		sbiw r28,71-63
 2042 09d2 6D96      		adiw r28,92-63
 2043 09d4 8FAF      		std Y+63,r24
 2044 09d6 6D97      		sbiw r28,92-63
 2045 09d8 2A96      		adiw r28,73-63
 2046 09da 8FAD      		ldd r24,Y+63
 2047 09dc 2A97      		sbiw r28,73-63
 2048 09de 6E96      		adiw r28,93-63
 2049 09e0 8FAF      		std Y+63,r24
 2050 09e2 6E97      		sbiw r28,93-63
 2051 09e4 2996      		adiw r28,72-63
 2052 09e6 8FAD      		ldd r24,Y+63
 2053 09e8 2997      		sbiw r28,72-63
 2054 09ea 6F96      		adiw r28,94-63
 2055 09ec 8FAF      		std Y+63,r24
 2056 09ee 6F97      		sbiw r28,94-63
 2057 09f0 8BA9      		ldd r24,Y+51
 2058 09f2 9CA9      		ldd r25,Y+52
 2059 09f4 A196      		adiw r28,95-62
 2060 09f6 9FAF      		std Y+63,r25
 2061 09f8 8EAF      		std Y+62,r24
 2062 09fa A197      		sbiw r28,95-62
 2063 09fc 46E1      		ldi r20,lo8(22)
 2064 09fe 50E0      		ldi r21,0
 2065 0a00 60E0      		ldi r22,lo8(ee_vars)
 2066 0a02 70E0      		ldi r23,hi8(ee_vars)
 2067 0a04 CE01      		movw r24,r28
 2068 0a06 855B      		subi r24,-75
 2069 0a08 9F4F      		sbci r25,-1
 2070 0a0a 0E94 0000 		call eeprom_update_block
 2071 0a0e 00C0      		rjmp .L171
 2072               	.L172:
 2073 0a10 0E94 0000 		call yackbeat
 2074 0a14 8091 0000 		lds r24,straight_key
 2075 0a18 8111      		cpse r24,__zero_reg__
 2076 0a1a 00C0      		rjmp .L173
 2077 0a1c 0E94 0000 		call yackiambic
 2078 0a20 00C0      		rjmp .L73
 2079               	.L173:
 2080 0a22 8091 0000 		lds r24,sk_state
 2081 0a26 8130      		cpi r24,lo8(1)
 2082 0a28 01F0      		breq .L174
 2083 0a2a 00F0      		brlo .L175
 2084 0a2c 8230      		cpi r24,lo8(2)
 2085 0a2e 01F0      		breq .L176
 2086 0a30 00C0      		rjmp .L73
 2087               	.L175:
 2088 0a32 0599      		sbic 0,5
 2089 0a34 00C0      		rjmp .L73
 2090 0a36 82E3      		ldi r24,lo8(50)
 2091 0a38 90E0      		ldi r25,0
 2092 0a3a 9093 0000 		sts sk_timer+1,r25
 2093 0a3e 8093 0000 		sts sk_timer,r24
 2094 0a42 81E0      		ldi r24,lo8(1)
 2095 0a44 8093 0000 		sts txKeyed,r24
 2096 0a48 0E94 0000 		call transition_to_tx
 2097 0a4c 82E0      		ldi r24,lo8(2)
 2098 0a4e 0E94 0000 		call key
 2099 0a52 1092 0000 		sts enableMemoryReplay,__zero_reg__
 2100 0a56 8091 0000 		lds r24,sk_state
 2101 0a5a 8F5F      		subi r24,lo8(-(1))
 2102 0a5c 8093 0000 		sts sk_state,r24
 2103 0a60 00C0      		rjmp .L73
 2104               	.L174:
 2105 0a62 0599      		sbic 0,5
 2106 0a64 00C0      		rjmp .L177
 2107 0a66 82E0      		ldi r24,lo8(2)
 2108 0a68 0E94 0000 		call key
 2109 0a6c 82E3      		ldi r24,lo8(50)
 2110 0a6e 90E0      		ldi r25,0
 2111 0a70 00C0      		rjmp .L289
 2112               	.L177:
 2113 0a72 8091 0000 		lds r24,sk_timer
 2114 0a76 9091 0000 		lds r25,sk_timer+1
 2115 0a7a 892B      		or r24,r25
 2116 0a7c 01F0      		breq .L178
 2117 0a7e 81E0      		ldi r24,lo8(1)
 2118 0a80 0E94 0000 		call key
 2119 0a84 8091 0000 		lds r24,sk_timer
 2120 0a88 9091 0000 		lds r25,sk_timer+1
 2121 0a8c 0197      		sbiw r24,1
 2122               	.L289:
 2123 0a8e 9093 0000 		sts sk_timer+1,r25
 2124 0a92 8093 0000 		sts sk_timer,r24
 2125 0a96 00C0      		rjmp .L73
 2126               	.L178:
 2127 0a98 81E0      		ldi r24,lo8(1)
 2128 0a9a 0E94 0000 		call key
 2129 0a9e 2092 0000 		sts sk_state,r2
 2130               	.L176:
 2131 0aa2 81E0      		ldi r24,lo8(1)
 2132 0aa4 0E94 0000 		call key
 2133 0aa8 0E94 0000 		call transistion_to_rx
 2134 0aac 1092 0000 		sts sk_state,__zero_reg__
 2135 0ab0 00C0      		rjmp .L73
 2136               	.L186:
 2137 0ab2 412C      		mov r4,__zero_reg__
 2138               	.L296:
 2139 0ab4 312C      		mov r3,__zero_reg__
 2140 0ab6 00C0      		rjmp .L82
 2141               	.L187:
 2142 0ab8 13E0      		ldi r17,lo8(3)
 2143 0aba 3324      		clr r3
 2144 0abc 3394      		inc r3
 2145               	.L82:
 2146 0abe 512C      		mov r5,__zero_reg__
 2147 0ac0 00C0      		rjmp .L92
 2148               	.L90:
 2149 0ac2 1230      		cpi r17,lo8(2)
 2150 0ac4 01F0      		breq .L179
 2151 0ac6 1B30      		cpi r17,lo8(11)
 2152 0ac8 01F4      		brne .L91
 2153               	.L179:
 2154 0aca 80E0      		ldi r24,0
 2155 0acc 0E94 0000 		call yackinhibit
 2156 0ad0 0E94 0000 		call ssd1306ClearScreen
 2157 0ad4 6DA9      		ldd r22,Y+53
 2158 0ad6 7EA9      		ldd r23,Y+54
 2159 0ad8 8FA9      		ldd r24,Y+55
 2160 0ada 98AD      		ldd r25,Y+56
 2161 0adc 4091 0000 		lds r20,battery_state
 2162 0ae0 0E94 0000 		call displayFreq
 2163 0ae4 0E94 0000 		call ssd1306Refresh
 2164 0ae8 10E0      		ldi r17,0
 2165 0aea 00C0      		rjmp .L290
 2166               	.L91:
 2167 0aec 1130      		cpi r17,lo8(1)
 2168 0aee 01F0      		breq .+2
 2169 0af0 00C0      		rjmp .L89
 2170               	/* #APP */
 2171               	 ;  521 "main.c" 1
 2172 0af2 F894      		cli
 2173               	 ;  0 "" 2
 2174               	/* #NOAPP */
 2175 0af4 6DA9      		ldd r22,Y+53
 2176 0af6 7EA9      		ldd r23,Y+54
 2177 0af8 8FA9      		ldd r24,Y+55
 2178 0afa 98AD      		ldd r25,Y+56
 2179 0afc 0E94 0000 		call si5351aSetFrequency
 2180               	/* #APP */
 2181               	 ;  523 "main.c" 1
 2182 0b00 7894      		sei
 2183               	 ;  0 "" 2
 2184               	/* #NOAPP */
 2185 0b02 12E0      		ldi r17,lo8(2)
 2186 0b04 00C0      		rjmp .L290
 2187               	.L116:
 2188 0b06 91E0      		ldi r25,lo8(1)
 2189 0b08 7912      		cpse r7,r25
 2190 0b0a 00C0      		rjmp .L287
 2191 0b0c 00C0      		rjmp .L181
 2192               	.L136:
 2193 0b0e 00E0      		ldi r16,0
 2194 0b10 13E0      		ldi r17,lo8(3)
 2195 0b12 00C0      		rjmp .L169
 2196               	.L93:
 2197 0b14 FA01      		movw r30,r20
 2198 0b16 3197      		sbiw r30,1
 2199 0b18 EB30      		cpi r30,11
 2200 0b1a F105      		cpc r31,__zero_reg__
 2201 0b1c 00F0      		brlo .L306
 2202 0b1e 00E0      		ldi r16,0
 2203 0b20 00C0      		rjmp .L169
 2204               	.L306:
 2205 0b22 E050      		subi r30,lo8(-(gs(.L183)))
 2206 0b24 F040      		sbci r31,hi8(-(gs(.L183)))
 2207 0b26 0C94 0000 		jmp __tablejump2__
 2208               		.section	.progmem.gcc_sw_table,"a",@progbits
 2209               		.p2align	1
 2210               	.L183:
 2211 0016 0000      		.word gs(.L111)
 2212 0018 0000      		.word gs(.L203)
 2213 001a 0000      		.word gs(.L121)
 2214 001c 0000      		.word gs(.L139)
 2215 001e 0000      		.word gs(.L206)
 2216 0020 0000      		.word gs(.L147)
 2217 0022 0000      		.word gs(.L207)
 2218 0024 0000      		.word gs(.L154)
 2219 0026 0000      		.word gs(.L157)
 2220 0028 0000      		.word gs(.L210)
 2221 002a 0000      		.word gs(.L166)
 2222               		.section	.text.startup
 2223               	.L203:
 2224 0b2a 712C      		mov r7,__zero_reg__
 2225 0b2c 612C      		mov r6,__zero_reg__
 2226 0b2e 00C0      		rjmp .L117
 2227               	.L206:
 2228 0b30 712C      		mov r7,__zero_reg__
 2229 0b32 612C      		mov r6,__zero_reg__
 2230 0b34 00C0      		rjmp .L285
 2231               	.L117:
 2232 0b36 E1E0      		ldi r30,lo8(1)
 2233 0b38 5E16      		cp r5,r30
 2234 0b3a 01F4      		brne .+2
 2235 0b3c 00C0      		rjmp .L184
 2236 0b3e 00E0      		ldi r16,0
 2237 0b40 12E0      		ldi r17,lo8(2)
 2238 0b42 00C0      		rjmp .L185
 2239               	.L287:
 2240 0b44 21E0      		ldi r18,lo8(1)
 2241 0b46 5212      		cpse r5,r18
 2242 0b48 00C0      		rjmp .L211
 2243 0b4a 00C0      		rjmp .L184
 2244               	.L151:
 2245 0b4c 01E0      		ldi r16,lo8(1)
 2246 0b4e 00C0      		rjmp .L112
 2247               	.L190:
 2248 0b50 11E0      		ldi r17,lo8(1)
 2249 0b52 00C0      		rjmp .L113
 2250               	.L193:
 2251 0b54 14E0      		ldi r17,lo8(4)
 2252 0b56 00C0      		rjmp .L113
 2253               	.L195:
 2254 0b58 16E0      		ldi r17,lo8(6)
 2255 0b5a 00C0      		rjmp .L113
 2256               	.L197:
 2257 0b5c 18E0      		ldi r17,lo8(8)
 2258 0b5e 00C0      		rjmp .L113
 2259               	.L198:
 2260 0b60 19E0      		ldi r17,lo8(9)
 2261 0b62 00C0      		rjmp .L113
 2262               	.L200:
 2263 0b64 1BE0      		ldi r17,lo8(11)
 2264               	.L113:
 2265 0b66 31E0      		ldi r19,lo8(1)
 2266 0b68 3312      		cpse r3,r19
 2267 0b6a 00C0      		rjmp .L171
 2268 0b6c 00C0      		rjmp .L211
 2270               		.text
 2271               	.global	service_vswr
 2273               	service_vswr:
 2274               	/* prologue: function */
 2275               	/* frame size = 0 */
 2276               	/* stack size = 0 */
 2277               	.L__stack_usage = 0
 2278 062e 0E94 0000 		call clearMainArea
 2279 0632 84E0      		ldi r24,lo8(4)
 2280 0634 0E94 0000 		call displayChangeStateIcon
 2281 0638 0E94 0000 		call getVSWR
 2282 063c 0C94 0000 		jmp drawVSWR
 2284               	.global	disable_memory_replay
 2286               	disable_memory_replay:
 2287               	/* prologue: function */
 2288               	/* frame size = 0 */
 2289               	/* stack size = 0 */
 2290               	.L__stack_usage = 0
 2291 0640 1092 0000 		sts enableMemoryReplay,__zero_reg__
 2292 0644 0895      		ret
 2294               		.comm	OLEDbuffer,512,1
 2295               	.global	cqStr
 2296               		.data
 2299               	cqStr:
 2300 0000 4351 2043 		.string	"CQ CQ CQ de"
 2300      5120 4351 
 2300      2064 6500 
 2301               	.global	ee_vars
 2302               		.section	.eeprom,"aw",@progbits
 2305               	ee_vars:
 2306 0000 0000 0000 		.zero	22
 2306      0000 0000 
 2306      0000 0000 
 2306      0000 0000 
 2306      0000 0000 
 2307               	.global	magic
 2310               	magic:
 2311 0016 A5        		.byte	-91
 2312               		.comm	txKeyed,1,1
 2313               		.comm	sk_timer,2,1
 2314               	.global	sk_state
 2315               		.section .bss
 2318               	sk_state:
 2319 0000 00        		.zero	1
 2320               		.comm	memoryReplayNow,1,1
 2321               	.global	countDownMemoryTimer
 2324               	countDownMemoryTimer:
 2325 0001 0000      		.zero	2
 2326               	.global	straight_key
 2329               	straight_key:
 2330 0003 00        		.zero	1
 2331               		.comm	enableMemoryReplay,1,1
 2332               		.comm	battery_state,1,1
 2333               	.global	storedRot
 2336               	storedRot:
 2337 0004 0000      		.zero	2
 2338               	.global	storedRotB
 2341               	storedRotB:
 2342 0006 0000      		.zero	2
 2343               	.global	storedRotA
 2346               	storedRotA:
 2347 0008 0000      		.zero	2
 2348               	.global	rotEncChange
 2351               	rotEncChange:
 2352 000a 0000      		.zero	2
 2353               		.comm	callStr,15,1
 2354               		.comm	wpm,1,1
 2355               		.comm	wpmcnt,2,1
 2356               		.ident	"GCC: (AVR_8_bit_GNU_Toolchain_3.6.2_1778) 5.4.0"
 2357               	.global __do_copy_data
 2358               	.global __do_clear_bss
DEFINED SYMBOLS
                            *ABS*:0000000000000000 main.c
     /tmp/ccfnRGYS.s:2      *ABS*:000000000000003e __SP_H__
     /tmp/ccfnRGYS.s:3      *ABS*:000000000000003d __SP_L__
     /tmp/ccfnRGYS.s:4      *ABS*:000000000000003f __SREG__
     /tmp/ccfnRGYS.s:5      *ABS*:0000000000000000 __tmp_reg__
     /tmp/ccfnRGYS.s:6      *ABS*:0000000000000001 __zero_reg__
     /tmp/ccfnRGYS.s:9      .text:0000000000000000 serviceBattery
                            *COM*:0000000000000001 battery_state
     /tmp/ccfnRGYS.s:71     .text:0000000000000084 volumeDOWNone
     /tmp/ccfnRGYS.s:95     .text:00000000000000aa volumeUPone
     /tmp/ccfnRGYS.s:120    .text:00000000000000d2 filterDOWNone
     /tmp/ccfnRGYS.s:144    .text:00000000000000f8 filterUPone
     /tmp/ccfnRGYS.s:169    .text:0000000000000120 serviceKeyerMode
     /tmp/ccfnRGYS.s:2329   .bss:0000000000000003 straight_key
     /tmp/ccfnRGYS.s:292    .text:0000000000000218 serviceFreq.part.1
     /tmp/ccfnRGYS.s:2346   .bss:0000000000000008 storedRotA
     /tmp/ccfnRGYS.s:2341   .bss:0000000000000006 storedRotB
     /tmp/ccfnRGYS.s:2351   .bss:000000000000000a rotEncChange
     /tmp/ccfnRGYS.s:428    .text:0000000000000330 ChangeBand
     /tmp/ccfnRGYS.s:532    .text:00000000000003f2 __vector_16
     /tmp/ccfnRGYS.s:561    .text:000000000000041a __vector_6
                            *COM*:0000000000000001 enableMemoryReplay
     /tmp/ccfnRGYS.s:613    .text:0000000000000472 getVSWR
     /tmp/ccfnRGYS.s:783    .text:0000000000000604 transistion_to_rx
                            *COM*:0000000000000001 txKeyed
     /tmp/ccfnRGYS.s:807    .text:0000000000000618 transition_to_tx
     /tmp/ccfnRGYS.s:846    .text.startup:0000000000000000 main
                            *COM*:000000000000000f callStr
     /tmp/ccfnRGYS.s:2305   .eeprom:0000000000000000 ee_vars
     /tmp/ccfnRGYS.s:2310   .eeprom:0000000000000016 magic
                            *COM*:0000000000000001 wpm
                            *COM*:0000000000000001 memoryReplayNow
     /tmp/ccfnRGYS.s:2324   .bss:0000000000000001 countDownMemoryTimer
     /tmp/ccfnRGYS.s:2299   .data:0000000000000000 cqStr
                            *COM*:0000000000000002 wpmcnt
     /tmp/ccfnRGYS.s:2318   .bss:0000000000000000 sk_state
                            *COM*:0000000000000002 sk_timer
     /tmp/ccfnRGYS.s:2273   .text:000000000000062e service_vswr
     /tmp/ccfnRGYS.s:2286   .text:0000000000000640 disable_memory_replay
                            *COM*:0000000000000200 OLEDbuffer
     /tmp/ccfnRGYS.s:2336   .bss:0000000000000004 storedRot

UNDEFINED SYMBOLS
yackbeat
yackinhibit
yackmode
si5351aSetFrequency
si5351aSetTXFrequency
displayFreq
ssd1306Refresh
__floatunsisf
__mulsf3
__divsf3
__fixunssfsi
__addsf3
__subsf3
si5351_clock_enable
strcpy
eeprom_read_block
eeprom_read_byte
strncpy
ssd1306Init
ssd1306ClearScreen
i2c_init
si5351aSetInitFrequency
si5351aSetInitTXFrequency
yackinit
yackstring
clearMainArea
drawIntNumber
yackdelay
__tablejump2__
displayFreqSmall
drawMainArea
yacktune
displayChangeStateIcon
sprintf
yackmessage
__divmodhi4
drawMainAreaSmall
eeprom_update_byte
eeprom_update_block
yackiambic
key
drawVSWR
__do_copy_data
__do_clear_bss
